	.text
	.file	"ast.c"
	.file	1 "/home/wroathe/compilers/src/auto" "./result_types.h"
	.file	2 "/home/wroathe/compilers/src/auto" "ast.c"
	.globl	noop_expr               # -- Begin function noop_expr
	.p2align	4, 0x90
	.type	noop_expr,@function
noop_expr:                              # @noop_expr
.Lfunc_begin0:
	.loc	2 104 0                 # ast.c:104:0
	.cfi_startproc
# %bb.0:
	pushq	%rbp
	.cfi_def_cfa_offset 16
	.cfi_offset %rbp, -16
	movq	%rsp, %rbp
	.cfi_def_cfa_register %rbp
	movq	%rdi, -8(%rbp)
.Ltmp0:
	.loc	2 104 61 prologue_end   # ast.c:104:61
	popq	%rbp
	.cfi_def_cfa %rsp, 8
	retq
.Ltmp1:
.Lfunc_end0:
	.size	noop_expr, .Lfunc_end0-noop_expr
	.cfi_endproc
                                        # -- End function
	.globl	do_empty_expr           # -- Begin function do_empty_expr
	.p2align	4, 0x90
	.type	do_empty_expr,@function
do_empty_expr:                          # @do_empty_expr
.Lfunc_begin1:
	.loc	2 106 0                 # ast.c:106:0
	.cfi_startproc
# %bb.0:
	pushq	%rbp
	.cfi_def_cfa_offset 16
	.cfi_offset %rbp, -16
	movq	%rsp, %rbp
	.cfi_def_cfa_register %rbp
	subq	$64, %rsp
	movq	%rdi, -8(%rbp)
.Ltmp2:
	.loc	2 107 11 prologue_end   # ast.c:107:11
	movq	-8(%rbp), %rdi
	.loc	2 107 20 is_stmt 0      # ast.c:107:20
	leaq	-32(%rbp), %rax
	movq	%rdi, -40(%rbp)         # 8-byte Spill
	movq	%rax, %rdi
	callq	empty_expr
	movq	-40(%rbp), %rdi         # 8-byte Reload
	.loc	2 107 5                 # ast.c:107:5
	leaq	-32(%rbp), %rax
	movq	(%rax), %rcx
	movq	%rcx, (%rsp)
	movq	8(%rax), %rcx
	movq	%rcx, 8(%rsp)
	movq	16(%rax), %rax
	movq	%rax, 16(%rsp)
	callq	sexpr
	.loc	2 108 1 is_stmt 1       # ast.c:108:1
	addq	$64, %rsp
	popq	%rbp
	.cfi_def_cfa %rsp, 8
	retq
.Ltmp3:
.Lfunc_end1:
	.size	do_empty_expr, .Lfunc_end1-do_empty_expr
	.cfi_endproc
                                        # -- End function
	.globl	do_alt_expr             # -- Begin function do_alt_expr
	.p2align	4, 0x90
	.type	do_alt_expr,@function
do_alt_expr:                            # @do_alt_expr
.Lfunc_begin2:
	.loc	2 110 0                 # ast.c:110:0
	.cfi_startproc
# %bb.0:
	pushq	%rbp
	.cfi_def_cfa_offset 16
	.cfi_offset %rbp, -16
	movq	%rsp, %rbp
	.cfi_def_cfa_register %rbp
	subq	$80, %rsp
	leaq	16(%rbp), %rax
	movq	%rdi, -8(%rbp)
.Ltmp4:
	.loc	2 111 11 prologue_end   # ast.c:111:11
	movq	-8(%rbp), %rdi
	.loc	2 111 35 is_stmt 0      # ast.c:111:35
	movq	(%rax), %rsi
	.loc	2 111 47                # ast.c:111:47
	movq	-8(%rbp), %rax
	movq	%rdi, -40(%rbp)         # 8-byte Spill
	.loc	2 111 41                # ast.c:111:41
	movq	%rax, %rdi
	movq	%rsi, -48(%rbp)         # 8-byte Spill
	callq	gexpr
	.loc	2 111 20                # ast.c:111:20
	leaq	-32(%rbp), %rdi
	movq	-48(%rbp), %rsi         # 8-byte Reload
	movq	%rax, %rdx
	callq	alt_expr
	movq	-40(%rbp), %rdi         # 8-byte Reload
	.loc	2 111 5                 # ast.c:111:5
	leaq	-32(%rbp), %rax
	movq	(%rax), %rdx
	movq	%rdx, (%rsp)
	movq	8(%rax), %rdx
	movq	%rdx, 8(%rsp)
	movq	16(%rax), %rax
	movq	%rax, 16(%rsp)
	callq	sexpr
	.loc	2 112 1 is_stmt 1       # ast.c:112:1
	addq	$80, %rsp
	popq	%rbp
	.cfi_def_cfa %rsp, 8
	retq
.Ltmp5:
.Lfunc_end2:
	.size	do_alt_expr, .Lfunc_end2-do_alt_expr
	.cfi_endproc
                                        # -- End function
	.globl	do_cat_expr             # -- Begin function do_cat_expr
	.p2align	4, 0x90
	.type	do_cat_expr,@function
do_cat_expr:                            # @do_cat_expr
.Lfunc_begin3:
	.loc	2 114 0                 # ast.c:114:0
	.cfi_startproc
# %bb.0:
	pushq	%rbp
	.cfi_def_cfa_offset 16
	.cfi_offset %rbp, -16
	movq	%rsp, %rbp
	.cfi_def_cfa_register %rbp
	subq	$80, %rsp
	leaq	16(%rbp), %rax
	movq	%rdi, -8(%rbp)
.Ltmp6:
	.loc	2 115 11 prologue_end   # ast.c:115:11
	movq	-8(%rbp), %rdi
	.loc	2 115 35 is_stmt 0      # ast.c:115:35
	movq	(%rax), %rsi
	.loc	2 115 47                # ast.c:115:47
	movq	-8(%rbp), %rax
	movq	%rdi, -40(%rbp)         # 8-byte Spill
	.loc	2 115 41                # ast.c:115:41
	movq	%rax, %rdi
	movq	%rsi, -48(%rbp)         # 8-byte Spill
	callq	gexpr
	.loc	2 115 20                # ast.c:115:20
	leaq	-32(%rbp), %rdi
	movq	-48(%rbp), %rsi         # 8-byte Reload
	movq	%rax, %rdx
	callq	cat_expr
	movq	-40(%rbp), %rdi         # 8-byte Reload
	.loc	2 115 5                 # ast.c:115:5
	leaq	-32(%rbp), %rax
	movq	(%rax), %rdx
	movq	%rdx, (%rsp)
	movq	8(%rax), %rdx
	movq	%rdx, 8(%rsp)
	movq	16(%rax), %rax
	movq	%rax, 16(%rsp)
	callq	sexpr
	.loc	2 116 1 is_stmt 1       # ast.c:116:1
	addq	$80, %rsp
	popq	%rbp
	.cfi_def_cfa %rsp, 8
	retq
.Ltmp7:
.Lfunc_end3:
	.size	do_cat_expr, .Lfunc_end3-do_cat_expr
	.cfi_endproc
                                        # -- End function
	.globl	do_sub_expr             # -- Begin function do_sub_expr
	.p2align	4, 0x90
	.type	do_sub_expr,@function
do_sub_expr:                            # @do_sub_expr
.Lfunc_begin4:
	.loc	2 118 0                 # ast.c:118:0
	.cfi_startproc
# %bb.0:
	pushq	%rbp
	.cfi_def_cfa_offset 16
	.cfi_offset %rbp, -16
	movq	%rsp, %rbp
	.cfi_def_cfa_register %rbp
	subq	$64, %rsp
	movq	%rdi, -8(%rbp)
.Ltmp8:
	.loc	2 119 11 prologue_end   # ast.c:119:11
	movq	-8(%rbp), %rdi
	.loc	2 119 35 is_stmt 0      # ast.c:119:35
	movq	-8(%rbp), %rax
	movq	%rdi, -40(%rbp)         # 8-byte Spill
	.loc	2 119 29                # ast.c:119:29
	movq	%rax, %rdi
	callq	gexpr
	.loc	2 119 20                # ast.c:119:20
	leaq	-32(%rbp), %rdi
	movq	%rax, %rsi
	callq	sub_expr
	movq	-40(%rbp), %rdi         # 8-byte Reload
	.loc	2 119 5                 # ast.c:119:5
	leaq	-32(%rbp), %rax
	movq	(%rax), %rsi
	movq	%rsi, (%rsp)
	movq	8(%rax), %rsi
	movq	%rsi, 8(%rsp)
	movq	16(%rax), %rax
	movq	%rax, 16(%rsp)
	callq	sexpr
	.loc	2 120 1 is_stmt 1       # ast.c:120:1
	addq	$64, %rsp
	popq	%rbp
	.cfi_def_cfa %rsp, 8
	retq
.Ltmp9:
.Lfunc_end4:
	.size	do_sub_expr, .Lfunc_end4-do_sub_expr
	.cfi_endproc
                                        # -- End function
	.globl	do_dotall_expr          # -- Begin function do_dotall_expr
	.p2align	4, 0x90
	.type	do_dotall_expr,@function
do_dotall_expr:                         # @do_dotall_expr
.Lfunc_begin5:
	.loc	2 122 0                 # ast.c:122:0
	.cfi_startproc
# %bb.0:
	pushq	%rbp
	.cfi_def_cfa_offset 16
	.cfi_offset %rbp, -16
	movq	%rsp, %rbp
	.cfi_def_cfa_register %rbp
	subq	$64, %rsp
	movq	%rdi, -8(%rbp)
.Ltmp10:
	.loc	2 123 11 prologue_end   # ast.c:123:11
	movq	-8(%rbp), %rdi
	.loc	2 123 20 is_stmt 0      # ast.c:123:20
	leaq	-32(%rbp), %rax
	movq	%rdi, -40(%rbp)         # 8-byte Spill
	movq	%rax, %rdi
	callq	dotall_expr
	movq	-40(%rbp), %rdi         # 8-byte Reload
	.loc	2 123 5                 # ast.c:123:5
	leaq	-32(%rbp), %rax
	movq	(%rax), %rcx
	movq	%rcx, (%rsp)
	movq	8(%rax), %rcx
	movq	%rcx, 8(%rsp)
	movq	16(%rax), %rax
	movq	%rax, 16(%rsp)
	callq	sexpr
	.loc	2 124 1 is_stmt 1       # ast.c:124:1
	addq	$64, %rsp
	popq	%rbp
	.cfi_def_cfa %rsp, 8
	retq
.Ltmp11:
.Lfunc_end5:
	.size	do_dotall_expr, .Lfunc_end5-do_dotall_expr
	.cfi_endproc
                                        # -- End function
	.globl	do_symbol_expr          # -- Begin function do_symbol_expr
	.p2align	4, 0x90
	.type	do_symbol_expr,@function
do_symbol_expr:                         # @do_symbol_expr
.Lfunc_begin6:
	.loc	2 126 0                 # ast.c:126:0
	.cfi_startproc
# %bb.0:
	pushq	%rbp
	.cfi_def_cfa_offset 16
	.cfi_offset %rbp, -16
	movq	%rsp, %rbp
	.cfi_def_cfa_register %rbp
	subq	$64, %rsp
	leaq	16(%rbp), %rax
	movq	%rdi, -8(%rbp)
.Ltmp12:
	.loc	2 127 11 prologue_end   # ast.c:127:11
	movq	-8(%rbp), %rdi
	.loc	2 127 20 is_stmt 0      # ast.c:127:20
	leaq	-32(%rbp), %rcx
	movq	%rdi, -40(%rbp)         # 8-byte Spill
	movq	%rcx, %rdi
	movsbl	(%rax), %esi
	callq	symbol_expr
	movq	-40(%rbp), %rdi         # 8-byte Reload
	.loc	2 127 5                 # ast.c:127:5
	leaq	-32(%rbp), %rax
	movq	(%rax), %rcx
	movq	%rcx, (%rsp)
	movq	8(%rax), %rcx
	movq	%rcx, 8(%rsp)
	movq	16(%rax), %rax
	movq	%rax, 16(%rsp)
	callq	sexpr
	.loc	2 128 1 is_stmt 1       # ast.c:128:1
	addq	$64, %rsp
	popq	%rbp
	.cfi_def_cfa %rsp, 8
	retq
.Ltmp13:
.Lfunc_end6:
	.size	do_symbol_expr, .Lfunc_end6-do_symbol_expr
	.cfi_endproc
                                        # -- End function
	.globl	do_star_expr            # -- Begin function do_star_expr
	.p2align	4, 0x90
	.type	do_star_expr,@function
do_star_expr:                           # @do_star_expr
.Lfunc_begin7:
	.loc	2 130 0                 # ast.c:130:0
	.cfi_startproc
# %bb.0:
	pushq	%rbp
	.cfi_def_cfa_offset 16
	.cfi_offset %rbp, -16
	movq	%rsp, %rbp
	.cfi_def_cfa_register %rbp
	subq	$64, %rsp
	movq	%rdi, -8(%rbp)
.Ltmp14:
	.loc	2 131 11 prologue_end   # ast.c:131:11
	movq	-8(%rbp), %rdi
	.loc	2 131 36 is_stmt 0      # ast.c:131:36
	movq	-8(%rbp), %rax
	movq	%rdi, -40(%rbp)         # 8-byte Spill
	.loc	2 131 30                # ast.c:131:30
	movq	%rax, %rdi
	callq	gexpr
	.loc	2 131 20                # ast.c:131:20
	leaq	-32(%rbp), %rdi
	movq	%rax, %rsi
	callq	star_expr
	movq	-40(%rbp), %rdi         # 8-byte Reload
	.loc	2 131 5                 # ast.c:131:5
	leaq	-32(%rbp), %rax
	movq	(%rax), %rsi
	movq	%rsi, (%rsp)
	movq	8(%rax), %rsi
	movq	%rsi, 8(%rsp)
	movq	16(%rax), %rax
	movq	%rax, 16(%rsp)
	callq	sexpr
	.loc	2 132 1 is_stmt 1       # ast.c:132:1
	addq	$64, %rsp
	popq	%rbp
	.cfi_def_cfa %rsp, 8
	retq
.Ltmp15:
.Lfunc_end7:
	.size	do_star_expr, .Lfunc_end7-do_star_expr
	.cfi_endproc
                                        # -- End function
	.globl	do_plus_expr            # -- Begin function do_plus_expr
	.p2align	4, 0x90
	.type	do_plus_expr,@function
do_plus_expr:                           # @do_plus_expr
.Lfunc_begin8:
	.loc	2 134 0                 # ast.c:134:0
	.cfi_startproc
# %bb.0:
	pushq	%rbp
	.cfi_def_cfa_offset 16
	.cfi_offset %rbp, -16
	movq	%rsp, %rbp
	.cfi_def_cfa_register %rbp
	subq	$64, %rsp
	movq	%rdi, -8(%rbp)
.Ltmp16:
	.loc	2 135 11 prologue_end   # ast.c:135:11
	movq	-8(%rbp), %rdi
	.loc	2 135 36 is_stmt 0      # ast.c:135:36
	movq	-8(%rbp), %rax
	movq	%rdi, -40(%rbp)         # 8-byte Spill
	.loc	2 135 30                # ast.c:135:30
	movq	%rax, %rdi
	callq	gexpr
	.loc	2 135 20                # ast.c:135:20
	leaq	-32(%rbp), %rdi
	movq	%rax, %rsi
	callq	plus_expr
	movq	-40(%rbp), %rdi         # 8-byte Reload
	.loc	2 135 5                 # ast.c:135:5
	leaq	-32(%rbp), %rax
	movq	(%rax), %rsi
	movq	%rsi, (%rsp)
	movq	8(%rax), %rsi
	movq	%rsi, 8(%rsp)
	movq	16(%rax), %rax
	movq	%rax, 16(%rsp)
	callq	sexpr
	.loc	2 136 1 is_stmt 1       # ast.c:136:1
	addq	$64, %rsp
	popq	%rbp
	.cfi_def_cfa %rsp, 8
	retq
.Ltmp17:
.Lfunc_end8:
	.size	do_plus_expr, .Lfunc_end8-do_plus_expr
	.cfi_endproc
                                        # -- End function
	.globl	do_optional_expr        # -- Begin function do_optional_expr
	.p2align	4, 0x90
	.type	do_optional_expr,@function
do_optional_expr:                       # @do_optional_expr
.Lfunc_begin9:
	.loc	2 138 0                 # ast.c:138:0
	.cfi_startproc
# %bb.0:
	pushq	%rbp
	.cfi_def_cfa_offset 16
	.cfi_offset %rbp, -16
	movq	%rsp, %rbp
	.cfi_def_cfa_register %rbp
	subq	$64, %rsp
	movq	%rdi, -8(%rbp)
.Ltmp18:
	.loc	2 139 11 prologue_end   # ast.c:139:11
	movq	-8(%rbp), %rdi
	.loc	2 139 40 is_stmt 0      # ast.c:139:40
	movq	-8(%rbp), %rax
	movq	%rdi, -40(%rbp)         # 8-byte Spill
	.loc	2 139 34                # ast.c:139:34
	movq	%rax, %rdi
	callq	gexpr
	.loc	2 139 20                # ast.c:139:20
	leaq	-32(%rbp), %rdi
	movq	%rax, %rsi
	callq	optional_expr
	movq	-40(%rbp), %rdi         # 8-byte Reload
	.loc	2 139 5                 # ast.c:139:5
	leaq	-32(%rbp), %rax
	movq	(%rax), %rsi
	movq	%rsi, (%rsp)
	movq	8(%rax), %rsi
	movq	%rsi, 8(%rsp)
	movq	16(%rax), %rax
	movq	%rax, 16(%rsp)
	callq	sexpr
	.loc	2 140 1 is_stmt 1       # ast.c:140:1
	addq	$64, %rsp
	popq	%rbp
	.cfi_def_cfa %rsp, 8
	retq
.Ltmp19:
.Lfunc_end9:
	.size	do_optional_expr, .Lfunc_end9-do_optional_expr
	.cfi_endproc
                                        # -- End function
	.globl	alt_expr                # -- Begin function alt_expr
	.p2align	4, 0x90
	.type	alt_expr,@function
alt_expr:                               # @alt_expr
.Lfunc_begin10:
	.loc	2 20 0                  # ast.c:20:0
	.cfi_startproc
# %bb.0:
	pushq	%rbp
	.cfi_def_cfa_offset 16
	.cfi_offset %rbp, -16
	movq	%rsp, %rbp
	.cfi_def_cfa_register %rbp
	movq	%rdi, %rax
	movq	%rsi, -8(%rbp)
	movq	%rdx, -16(%rbp)
.Ltmp20:
	.loc	2 21 26 prologue_end    # ast.c:21:26
	movl	$3, (%rdi)
	.loc	2 23 18                 # ast.c:23:18
	movq	-8(%rbp), %rdx
	.loc	2 23 9 is_stmt 0        # ast.c:23:9
	movq	%rdx, 8(%rdi)
	.loc	2 24 18 is_stmt 1       # ast.c:24:18
	movq	-16(%rbp), %rdx
	.loc	2 23 9                  # ast.c:23:9
	movq	%rdx, 16(%rdi)
	.loc	2 21 5                  # ast.c:21:5
	popq	%rbp
	.cfi_def_cfa %rsp, 8
	retq
.Ltmp21:
.Lfunc_end10:
	.size	alt_expr, .Lfunc_end10-alt_expr
	.cfi_endproc
                                        # -- End function
	.globl	cat_expr                # -- Begin function cat_expr
	.p2align	4, 0x90
	.type	cat_expr,@function
cat_expr:                               # @cat_expr
.Lfunc_begin11:
	.loc	2 28 0                  # ast.c:28:0
	.cfi_startproc
# %bb.0:
	pushq	%rbp
	.cfi_def_cfa_offset 16
	.cfi_offset %rbp, -16
	movq	%rsp, %rbp
	.cfi_def_cfa_register %rbp
	movq	%rdi, %rax
	movq	%rsi, -8(%rbp)
	movq	%rdx, -16(%rbp)
.Ltmp22:
	.loc	2 29 26 prologue_end    # ast.c:29:26
	movl	$4, (%rdi)
	.loc	2 31 18                 # ast.c:31:18
	movq	-8(%rbp), %rdx
	.loc	2 31 9 is_stmt 0        # ast.c:31:9
	movq	%rdx, 8(%rdi)
	.loc	2 32 18 is_stmt 1       # ast.c:32:18
	movq	-16(%rbp), %rdx
	.loc	2 31 9                  # ast.c:31:9
	movq	%rdx, 16(%rdi)
	.loc	2 29 5                  # ast.c:29:5
	popq	%rbp
	.cfi_def_cfa %rsp, 8
	retq
.Ltmp23:
.Lfunc_end11:
	.size	cat_expr, .Lfunc_end11-cat_expr
	.cfi_endproc
                                        # -- End function
	.globl	star_expr               # -- Begin function star_expr
	.p2align	4, 0x90
	.type	star_expr,@function
star_expr:                              # @star_expr
.Lfunc_begin12:
	.loc	2 36 0                  # ast.c:36:0
	.cfi_startproc
# %bb.0:
	pushq	%rbp
	.cfi_def_cfa_offset 16
	.cfi_offset %rbp, -16
	movq	%rsp, %rbp
	.cfi_def_cfa_register %rbp
	movq	%rdi, %rax
	movq	%rsi, -8(%rbp)
.Ltmp24:
	.loc	2 37 26 prologue_end    # ast.c:37:26
	movl	$5, (%rdi)
	.loc	2 39 17                 # ast.c:39:17
	movq	-8(%rbp), %rsi
	.loc	2 39 9 is_stmt 0        # ast.c:39:9
	movq	%rsi, 8(%rdi)
	.loc	2 37 5 is_stmt 1        # ast.c:37:5
	popq	%rbp
	.cfi_def_cfa %rsp, 8
	retq
.Ltmp25:
.Lfunc_end12:
	.size	star_expr, .Lfunc_end12-star_expr
	.cfi_endproc
                                        # -- End function
	.globl	plus_expr               # -- Begin function plus_expr
	.p2align	4, 0x90
	.type	plus_expr,@function
plus_expr:                              # @plus_expr
.Lfunc_begin13:
	.loc	2 43 0                  # ast.c:43:0
	.cfi_startproc
# %bb.0:
	pushq	%rbp
	.cfi_def_cfa_offset 16
	.cfi_offset %rbp, -16
	movq	%rsp, %rbp
	.cfi_def_cfa_register %rbp
	movq	%rdi, %rax
	movq	%rsi, -8(%rbp)
.Ltmp26:
	.loc	2 44 26 prologue_end    # ast.c:44:26
	movl	$6, (%rdi)
	.loc	2 46 17                 # ast.c:46:17
	movq	-8(%rbp), %rsi
	.loc	2 46 9 is_stmt 0        # ast.c:46:9
	movq	%rsi, 8(%rdi)
	.loc	2 44 5 is_stmt 1        # ast.c:44:5
	popq	%rbp
	.cfi_def_cfa %rsp, 8
	retq
.Ltmp27:
.Lfunc_end13:
	.size	plus_expr, .Lfunc_end13-plus_expr
	.cfi_endproc
                                        # -- End function
	.globl	optional_expr           # -- Begin function optional_expr
	.p2align	4, 0x90
	.type	optional_expr,@function
optional_expr:                          # @optional_expr
.Lfunc_begin14:
	.loc	2 50 0                  # ast.c:50:0
	.cfi_startproc
# %bb.0:
	pushq	%rbp
	.cfi_def_cfa_offset 16
	.cfi_offset %rbp, -16
	movq	%rsp, %rbp
	.cfi_def_cfa_register %rbp
	movq	%rdi, %rax
	movq	%rsi, -8(%rbp)
.Ltmp28:
	.loc	2 51 26 prologue_end    # ast.c:51:26
	movl	$7, (%rdi)
	.loc	2 53 17                 # ast.c:53:17
	movq	-8(%rbp), %rsi
	.loc	2 53 9 is_stmt 0        # ast.c:53:9
	movq	%rsi, 8(%rdi)
	.loc	2 51 5 is_stmt 1        # ast.c:51:5
	popq	%rbp
	.cfi_def_cfa %rsp, 8
	retq
.Ltmp29:
.Lfunc_end14:
	.size	optional_expr, .Lfunc_end14-optional_expr
	.cfi_endproc
                                        # -- End function
	.globl	sub_expr                # -- Begin function sub_expr
	.p2align	4, 0x90
	.type	sub_expr,@function
sub_expr:                               # @sub_expr
.Lfunc_begin15:
	.loc	2 57 0                  # ast.c:57:0
	.cfi_startproc
# %bb.0:
	pushq	%rbp
	.cfi_def_cfa_offset 16
	.cfi_offset %rbp, -16
	movq	%rsp, %rbp
	.cfi_def_cfa_register %rbp
	movq	%rdi, %rax
	movq	%rsi, -8(%rbp)
.Ltmp30:
	.loc	2 58 26 prologue_end    # ast.c:58:26
	movl	$8, (%rdi)
	.loc	2 60 17                 # ast.c:60:17
	movq	-8(%rbp), %rsi
	.loc	2 60 9 is_stmt 0        # ast.c:60:9
	movq	%rsi, 8(%rdi)
	.loc	2 58 5 is_stmt 1        # ast.c:58:5
	popq	%rbp
	.cfi_def_cfa %rsp, 8
	retq
.Ltmp31:
.Lfunc_end15:
	.size	sub_expr, .Lfunc_end15-sub_expr
	.cfi_endproc
                                        # -- End function
	.globl	symbol_expr             # -- Begin function symbol_expr
	.p2align	4, 0x90
	.type	symbol_expr,@function
symbol_expr:                            # @symbol_expr
.Lfunc_begin16:
	.loc	2 64 0                  # ast.c:64:0
	.cfi_startproc
# %bb.0:
	pushq	%rbp
	.cfi_def_cfa_offset 16
	.cfi_offset %rbp, -16
	movq	%rsp, %rbp
	.cfi_def_cfa_register %rbp
	subq	$32, %rsp
	movb	%sil, %al
	movq	%rdi, %rcx
	xorl	%esi, %esi
	movb	%al, -1(%rbp)
.Ltmp32:
	.loc	2 65 12 prologue_end    # ast.c:65:12
	movq	%rdi, %rdx
	movq	%rdi, -16(%rbp)         # 8-byte Spill
	movq	%rdx, %rdi
	movl	$24, %edx
	movq	%rcx, -24(%rbp)         # 8-byte Spill
	callq	memset
	movq	-16(%rbp), %rcx         # 8-byte Reload
	.loc	2 65 26 is_stmt 0       # ast.c:65:26
	movl	$9, (%rcx)
	.loc	2 67 19 is_stmt 1       # ast.c:67:19
	movb	-1(%rbp), %al
	.loc	2 67 9 is_stmt 0        # ast.c:67:9
	movb	%al, 8(%rcx)
	movq	-24(%rbp), %rax         # 8-byte Reload
	.loc	2 65 5 is_stmt 1        # ast.c:65:5
	addq	$32, %rsp
	popq	%rbp
	.cfi_def_cfa %rsp, 8
	retq
.Ltmp33:
.Lfunc_end16:
	.size	symbol_expr, .Lfunc_end16-symbol_expr
	.cfi_endproc
                                        # -- End function
	.globl	dotall_expr             # -- Begin function dotall_expr
	.p2align	4, 0x90
	.type	dotall_expr,@function
dotall_expr:                            # @dotall_expr
.Lfunc_begin17:
	.loc	2 71 0                  # ast.c:71:0
	.cfi_startproc
# %bb.0:
	pushq	%rbp
	.cfi_def_cfa_offset 16
	.cfi_offset %rbp, -16
	movq	%rsp, %rbp
	.cfi_def_cfa_register %rbp
	subq	$16, %rsp
	movq	%rdi, %rax
	xorl	%esi, %esi
.Ltmp34:
	.loc	2 72 12 prologue_end    # ast.c:72:12
	movq	%rdi, %rcx
	movq	%rdi, -8(%rbp)          # 8-byte Spill
	movq	%rcx, %rdi
	movl	$24, %edx
	movq	%rax, -16(%rbp)         # 8-byte Spill
	callq	memset
	movq	-8(%rbp), %rax          # 8-byte Reload
	.loc	2 72 26 is_stmt 0       # ast.c:72:26
	movl	$2, (%rax)
	movq	-16(%rbp), %rax         # 8-byte Reload
	.loc	2 72 5                  # ast.c:72:5
	addq	$16, %rsp
	popq	%rbp
	.cfi_def_cfa %rsp, 8
	retq
.Ltmp35:
.Lfunc_end17:
	.size	dotall_expr, .Lfunc_end17-dotall_expr
	.cfi_endproc
                                        # -- End function
	.globl	empty_expr              # -- Begin function empty_expr
	.p2align	4, 0x90
	.type	empty_expr,@function
empty_expr:                             # @empty_expr
.Lfunc_begin18:
	.loc	2 77 0 is_stmt 1        # ast.c:77:0
	.cfi_startproc
# %bb.0:
	pushq	%rbp
	.cfi_def_cfa_offset 16
	.cfi_offset %rbp, -16
	movq	%rsp, %rbp
	.cfi_def_cfa_register %rbp
	subq	$16, %rsp
	movq	%rdi, %rax
	xorl	%esi, %esi
.Ltmp36:
	.loc	2 78 12 prologue_end    # ast.c:78:12
	movq	%rdi, %rcx
	movq	%rdi, -8(%rbp)          # 8-byte Spill
	movq	%rcx, %rdi
	movl	$24, %edx
	movq	%rax, -16(%rbp)         # 8-byte Spill
	callq	memset
	movq	-8(%rbp), %rax          # 8-byte Reload
	.loc	2 78 26 is_stmt 0       # ast.c:78:26
	movl	$1, (%rax)
	movq	-16(%rbp), %rax         # 8-byte Reload
	.loc	2 78 5                  # ast.c:78:5
	addq	$16, %rsp
	popq	%rbp
	.cfi_def_cfa %rsp, 8
	retq
.Ltmp37:
.Lfunc_end18:
	.size	empty_expr, .Lfunc_end18-empty_expr
	.cfi_endproc
                                        # -- End function
	.globl	expr_context            # -- Begin function expr_context
	.p2align	4, 0x90
	.type	expr_context,@function
expr_context:                           # @expr_context
.Lfunc_begin19:
	.loc	2 83 0 is_stmt 1        # ast.c:83:0
	.cfi_startproc
# %bb.0:
	pushq	%rbp
	.cfi_def_cfa_offset 16
	.cfi_offset %rbp, -16
	movq	%rsp, %rbp
	.cfi_def_cfa_register %rbp
	subq	$32, %rsp
	movq	%rdi, %rax
	xorl	%ecx, %ecx
	movq	%rsi, -8(%rbp)
.Ltmp38:
	.loc	2 84 12 prologue_end    # ast.c:84:12
	movq	%rdi, %rsi
	movq	%rdi, -16(%rbp)         # 8-byte Spill
	movq	%rsi, %rdi
	movl	%ecx, %esi
	movl	$32, %edx
	movq	%rax, -24(%rbp)         # 8-byte Spill
	callq	memset
	.loc	2 85 20                 # ast.c:85:20
	movq	-8(%rbp), %rax
	movq	-16(%rbp), %rdx         # 8-byte Reload
	.loc	2 84 34                 # ast.c:84:34
	movq	%rax, (%rdx)
	movq	-24(%rbp), %rax         # 8-byte Reload
	.loc	2 84 5 is_stmt 0        # ast.c:84:5
	addq	$32, %rsp
	popq	%rbp
	.cfi_def_cfa %rsp, 8
	retq
.Ltmp39:
.Lfunc_end19:
	.size	expr_context, .Lfunc_end19-expr_context
	.cfi_endproc
                                        # -- End function
	.globl	sexpr                   # -- Begin function sexpr
	.p2align	4, 0x90
	.type	sexpr,@function
sexpr:                                  # @sexpr
.Lfunc_begin20:
	.loc	2 90 0 is_stmt 1        # ast.c:90:0
	.cfi_startproc
# %bb.0:
	pushq	%rbp
	.cfi_def_cfa_offset 16
	.cfi_offset %rbp, -16
	movq	%rsp, %rbp
	.cfi_def_cfa_register %rbp
	leaq	16(%rbp), %rax
	movq	%rdi, -8(%rbp)
.Ltmp40:
	.loc	2 91 6 prologue_end     # ast.c:91:6
	movq	-8(%rbp), %rdi
	.loc	2 91 15 is_stmt 0       # ast.c:91:15
	movq	(%rdi), %rdi
	.loc	2 91 25                 # ast.c:91:25
	movq	(%rax), %rcx
	movq	%rcx, (%rdi)
	movq	8(%rax), %rcx
	movq	%rcx, 8(%rdi)
	movq	16(%rax), %rax
	movq	%rax, 16(%rdi)
	.loc	2 92 21 is_stmt 1       # ast.c:92:21
	movq	-8(%rbp), %rax
	.loc	2 92 30 is_stmt 0       # ast.c:92:30
	movq	(%rax), %rax
	.loc	2 92 5                  # ast.c:92:5
	movq	-8(%rbp), %rcx
	.loc	2 92 19                 # ast.c:92:19
	movq	%rax, 8(%rcx)
	.loc	2 93 5 is_stmt 1        # ast.c:93:5
	movq	-8(%rbp), %rax
	.loc	2 93 21 is_stmt 0       # ast.c:93:21
	movq	(%rax), %rcx
	addq	$24, %rcx
	movq	%rcx, (%rax)
	.loc	2 94 1 is_stmt 1        # ast.c:94:1
	popq	%rbp
	.cfi_def_cfa %rsp, 8
	retq
.Ltmp41:
.Lfunc_end20:
	.size	sexpr, .Lfunc_end20-sexpr
	.cfi_endproc
                                        # -- End function
	.globl	gexpr                   # -- Begin function gexpr
	.p2align	4, 0x90
	.type	gexpr,@function
gexpr:                                  # @gexpr
.Lfunc_begin21:
	.loc	2 96 0                  # ast.c:96:0
	.cfi_startproc
# %bb.0:
	pushq	%rbp
	.cfi_def_cfa_offset 16
	.cfi_offset %rbp, -16
	movq	%rsp, %rbp
	.cfi_def_cfa_register %rbp
	movq	%rdi, -8(%rbp)
.Ltmp42:
	.loc	2 97 12 prologue_end    # ast.c:97:12
	movq	-8(%rbp), %rdi
	.loc	2 97 21 is_stmt 0       # ast.c:97:21
	movq	8(%rdi), %rax
	.loc	2 97 5                  # ast.c:97:5
	popq	%rbp
	.cfi_def_cfa %rsp, 8
	retq
.Ltmp43:
.Lfunc_end21:
	.size	gexpr, .Lfunc_end21-gexpr
	.cfi_endproc
                                        # -- End function
	.globl	expr_to_rval            # -- Begin function expr_to_rval
	.p2align	4, 0x90
	.type	expr_to_rval,@function
expr_to_rval:                           # @expr_to_rval
.Lfunc_begin22:
	.loc	2 100 0 is_stmt 1       # ast.c:100:0
	.cfi_startproc
# %bb.0:
	pushq	%rbp
	.cfi_def_cfa_offset 16
	.cfi_offset %rbp, -16
	movq	%rsp, %rbp
	.cfi_def_cfa_register %rbp
	subq	$32, %rsp
	movq	%rdi, %rax
	movq	%rsi, -8(%rbp)
.Ltmp44:
	.loc	2 101 41 prologue_end   # ast.c:101:41
	movq	-8(%rbp), %rsi
	movq	%rdi, -16(%rbp)         # 8-byte Spill
	.loc	2 101 35 is_stmt 0      # ast.c:101:35
	movq	%rsi, %rdi
	movq	%rax, -24(%rbp)         # 8-byte Spill
	callq	gexpr
	movq	-16(%rbp), %rsi         # 8-byte Reload
	.loc	2 101 25                # ast.c:101:25
	movq	%rax, (%rsi)
	movq	-24(%rbp), %rax         # 8-byte Reload
	.loc	2 101 5                 # ast.c:101:5
	addq	$32, %rsp
	popq	%rbp
	.cfi_def_cfa %rsp, 8
	retq
.Ltmp45:
.Lfunc_end22:
	.size	expr_to_rval, .Lfunc_end22-expr_to_rval
	.cfi_endproc
                                        # -- End function
	.type	expr_actions,@object    # @expr_actions
	.data
	.globl	expr_actions
	.p2align	4
expr_actions:
	.quad	noop_expr
	.quad	do_empty_expr
	.quad	do_alt_expr
	.quad	do_cat_expr
	.quad	do_sub_expr
	.quad	do_dotall_expr
	.quad	do_symbol_expr
	.quad	do_star_expr
	.quad	do_plus_expr
	.quad	do_optional_expr
	.size	expr_actions, 80

	.file	3 "/home/wroathe/compilers/src/auto" "./ast.h"
	.file	4 "/home/wroathe/compilers/src/auto" "./parser.h"
	.section	".note.GNU-stack","",@progbits
	.addrsig
	.addrsig_sym noop_expr
	.addrsig_sym do_empty_expr
	.addrsig_sym do_alt_expr
	.addrsig_sym do_cat_expr
	.addrsig_sym do_sub_expr
	.addrsig_sym do_dotall_expr
	.addrsig_sym do_symbol_expr
	.addrsig_sym do_star_expr
	.addrsig_sym do_plus_expr
	.addrsig_sym do_optional_expr
	.addrsig_sym alt_expr
	.addrsig_sym cat_expr
	.addrsig_sym star_expr
	.addrsig_sym plus_expr
	.addrsig_sym optional_expr
	.addrsig_sym sub_expr
	.addrsig_sym symbol_expr
	.addrsig_sym dotall_expr
	.addrsig_sym empty_expr
	.addrsig_sym sexpr
	.addrsig_sym gexpr