	.text
	.file	"main.c"
	.file	1 "/home/wroathe/compilers/src/auto" "../../base/base/args.h"
	.file	2 "/home/wroathe/compilers/src/auto" "./result_types.h"
	.file	3 "/home/wroathe/compilers/src/auto" "./ast.h"
	.file	4 "/home/wroathe/compilers/src/auto" "./nfa.h"
	.file	5 "/home/wroathe/compilers/src/auto" "main.c"
	.file	6 "/usr/include/x86_64-linux-gnu/bits" "getopt_ext.h"
	.file	7 "/usr/include/graphviz" "cgraph.h"
	.file	8 "/usr/include/x86_64-linux-gnu/bits" "types.h"
	.file	9 "/usr/include/x86_64-linux-gnu/bits" "stdint-uintn.h"
	.file	10 "/usr/include/graphviz" "cdt.h"
	.file	11 "/usr/lib/llvm-8/lib/clang/8.0.0/include" "stddef.h"
	.globl	read_args               # -- Begin function read_args
	.p2align	4, 0x90
	.type	read_args,@function
read_args:                              # @read_args
.Lfunc_begin0:
	.loc	5 41 0                  # main.c:41:0
	.cfi_startproc
# %bb.0:
	pushq	%rbp
	.cfi_def_cfa_offset 16
	.cfi_offset %rbp, -16
	movq	%rsp, %rbp
	.cfi_def_cfa_register %rbp
	subq	$48, %rsp
	movq	%rdi, -8(%rbp)
	movl	%esi, -12(%rbp)
	movq	%rdx, -24(%rbp)
.LBB0_1:                                # =>This Inner Loop Header: Depth=1
.Ltmp0:
	.loc	5 43 27 prologue_end    # main.c:43:27
	movq	-24(%rbp), %rdi
	.loc	5 43 19 is_stmt 0       # main.c:43:19
	callq	readarg
	.loc	5 43 17                 # main.c:43:17
	movl	%eax, -28(%rbp)
	.loc	5 43 37                 # main.c:43:37
	cmpl	$-1, %eax
	.loc	5 43 5                  # main.c:43:5
	je	.LBB0_24
# %bb.2:                                #   in Loop: Header=BB0_1 Depth=1
.Ltmp1:
	.loc	5 44 17 is_stmt 1       # main.c:44:17
	movl	-28(%rbp), %eax
	.loc	5 44 9 is_stmt 0        # main.c:44:9
	testl	%eax, %eax
	movl	%eax, -32(%rbp)         # 4-byte Spill
	je	.LBB0_3
	jmp	.LBB0_25
.LBB0_25:                               #   in Loop: Header=BB0_1 Depth=1
	.loc	5 0 9                   # main.c:0:9
	movl	-32(%rbp), %eax         # 4-byte Reload
	.loc	5 44 9                  # main.c:44:9
	subl	$1, %eax
	movl	%eax, -36(%rbp)         # 4-byte Spill
	je	.LBB0_22
	jmp	.LBB0_23
.LBB0_3:                                #   in Loop: Header=BB0_1 Depth=1
.Ltmp2:
	.loc	5 46 25 is_stmt 1       # main.c:46:25
	movl	-12(%rbp), %eax
	.loc	5 46 17 is_stmt 0       # main.c:46:17
	movl	%eax, %ecx
	subl	$1, %ecx
	movl	%eax, -40(%rbp)         # 4-byte Spill
	movl	%ecx, -44(%rbp)         # 4-byte Spill
	je	.LBB0_4
	jmp	.LBB0_26
.LBB0_26:                               #   in Loop: Header=BB0_1 Depth=1
	.loc	5 0 17                  # main.c:0:17
	movl	-40(%rbp), %eax         # 4-byte Reload
	.loc	5 46 17                 # main.c:46:17
	subl	$2, %eax
	movl	%eax, -48(%rbp)         # 4-byte Spill
	je	.LBB0_14
	jmp	.LBB0_21
.LBB0_4:                                #   in Loop: Header=BB0_1 Depth=1
.Ltmp3:
	.loc	5 48 43 is_stmt 1       # main.c:48:43
	movb	$0, %al
	callq	argval
	.loc	5 48 29 is_stmt 0       # main.c:48:29
	movl	$.L.str.4, %edi
	movq	%rax, %rsi
	callq	strcmp
	.loc	5 48 53                 # main.c:48:53
	cmpl	$0, %eax
.Ltmp4:
	.loc	5 48 29                 # main.c:48:29
	jne	.LBB0_6
# %bb.5:                                #   in Loop: Header=BB0_1 Depth=1
.Ltmp5:
	.loc	5 49 29 is_stmt 1       # main.c:49:29
	movq	-8(%rbp), %rax
	.loc	5 49 42 is_stmt 0       # main.c:49:42
	movl	$3, 4(%rax)
	.loc	5 50 25 is_stmt 1       # main.c:50:25
	jmp	.LBB0_13
.Ltmp6:
.LBB0_6:                                #   in Loop: Header=BB0_1 Depth=1
	.loc	5 50 52 is_stmt 0       # main.c:50:52
	movb	$0, %al
	callq	argval
	.loc	5 50 36                 # main.c:50:36
	movl	$.L.str.5, %edi
	movq	%rax, %rsi
	callq	strcmp
	.loc	5 50 62                 # main.c:50:62
	cmpl	$0, %eax
.Ltmp7:
	.loc	5 50 36                 # main.c:50:36
	jne	.LBB0_8
# %bb.7:                                #   in Loop: Header=BB0_1 Depth=1
.Ltmp8:
	.loc	5 51 29 is_stmt 1       # main.c:51:29
	movq	-8(%rbp), %rax
	.loc	5 51 42 is_stmt 0       # main.c:51:42
	movl	$2, 4(%rax)
	.loc	5 52 25 is_stmt 1       # main.c:52:25
	jmp	.LBB0_12
.Ltmp9:
.LBB0_8:                                #   in Loop: Header=BB0_1 Depth=1
	.loc	5 52 51 is_stmt 0       # main.c:52:51
	movb	$0, %al
	callq	argval
	.loc	5 52 36                 # main.c:52:36
	movl	$.L.str.6, %edi
	movq	%rax, %rsi
	callq	strcmp
	.loc	5 52 61                 # main.c:52:61
	cmpl	$0, %eax
.Ltmp10:
	.loc	5 52 36                 # main.c:52:36
	jne	.LBB0_10
# %bb.9:                                #   in Loop: Header=BB0_1 Depth=1
.Ltmp11:
	.loc	5 53 29 is_stmt 1       # main.c:53:29
	movq	-8(%rbp), %rax
	.loc	5 53 42 is_stmt 0       # main.c:53:42
	movl	$1, 4(%rax)
	.loc	5 54 25 is_stmt 1       # main.c:54:25
	jmp	.LBB0_11
.Ltmp12:
.LBB0_10:
	.loc	5 55 41                 # main.c:55:41
	movq	stderr, %rdi
	.loc	5 55 49 is_stmt 0       # main.c:55:49
	movq	-24(%rbp), %rsi
	.loc	5 55 29                 # main.c:55:29
	callq	print_usage
	.loc	5 56 29 is_stmt 1       # main.c:56:29
	movl	$1, %edi
	callq	exit
.Ltmp13:
.LBB0_11:                               #   in Loop: Header=BB0_1 Depth=1
	.loc	5 0 29 is_stmt 0        # main.c:0:29
	jmp	.LBB0_12
.LBB0_12:                               #   in Loop: Header=BB0_1 Depth=1
	jmp	.LBB0_13
.LBB0_13:                               #   in Loop: Header=BB0_1 Depth=1
	.loc	5 58 25 is_stmt 1       # main.c:58:25
	jmp	.LBB0_21
.LBB0_14:                               #   in Loop: Header=BB0_1 Depth=1
.Ltmp14:
	.loc	5 60 43                 # main.c:60:43
	movb	$0, %al
	callq	argval
	.loc	5 60 29 is_stmt 0       # main.c:60:29
	movl	$.L.str.4, %edi
	movq	%rax, %rsi
	callq	strcmp
	.loc	5 60 53                 # main.c:60:53
	cmpl	$0, %eax
.Ltmp15:
	.loc	5 60 29                 # main.c:60:29
	jne	.LBB0_16
# %bb.15:                               #   in Loop: Header=BB0_1 Depth=1
.Ltmp16:
	.loc	5 61 29 is_stmt 1       # main.c:61:29
	movq	-8(%rbp), %rax
	.loc	5 61 42 is_stmt 0       # main.c:61:42
	movl	$3, 4(%rax)
	.loc	5 62 25 is_stmt 1       # main.c:62:25
	jmp	.LBB0_20
.Ltmp17:
.LBB0_16:                               #   in Loop: Header=BB0_1 Depth=1
	.loc	5 62 52 is_stmt 0       # main.c:62:52
	movb	$0, %al
	callq	argval
	.loc	5 62 36                 # main.c:62:36
	movl	$.L.str.5, %edi
	movq	%rax, %rsi
	callq	strcmp
	.loc	5 62 62                 # main.c:62:62
	cmpl	$0, %eax
.Ltmp18:
	.loc	5 62 36                 # main.c:62:36
	jne	.LBB0_18
# %bb.17:                               #   in Loop: Header=BB0_1 Depth=1
.Ltmp19:
	.loc	5 63 29 is_stmt 1       # main.c:63:29
	movq	-8(%rbp), %rax
	.loc	5 63 42 is_stmt 0       # main.c:63:42
	movl	$2, 4(%rax)
	.loc	5 64 25 is_stmt 1       # main.c:64:25
	jmp	.LBB0_19
.Ltmp20:
.LBB0_18:
	.loc	5 65 41                 # main.c:65:41
	movq	stderr, %rdi
	.loc	5 65 49 is_stmt 0       # main.c:65:49
	movq	-24(%rbp), %rsi
	.loc	5 65 29                 # main.c:65:29
	callq	print_usage
	.loc	5 66 29 is_stmt 1       # main.c:66:29
	movl	$1, %edi
	callq	exit
.Ltmp21:
.LBB0_19:                               #   in Loop: Header=BB0_1 Depth=1
	.loc	5 0 29 is_stmt 0        # main.c:0:29
	jmp	.LBB0_20
.LBB0_20:                               #   in Loop: Header=BB0_1 Depth=1
	.loc	5 68 25 is_stmt 1       # main.c:68:25
	jmp	.LBB0_21
.Ltmp22:
.LBB0_21:                               #   in Loop: Header=BB0_1 Depth=1
	.loc	5 70 17                 # main.c:70:17
	jmp	.LBB0_23
.LBB0_22:                               #   in Loop: Header=BB0_1 Depth=1
	.loc	5 72 31                 # main.c:72:31
	movb	$0, %al
	callq	argval
	.loc	5 72 17 is_stmt 0       # main.c:72:17
	movq	-8(%rbp), %rcx
	.loc	5 72 29                 # main.c:72:29
	movq	%rax, 8(%rcx)
.Ltmp23:
.LBB0_23:                               #   in Loop: Header=BB0_1 Depth=1
	.loc	5 43 5 is_stmt 1        # main.c:43:5
	jmp	.LBB0_1
.LBB0_24:
	.loc	5 76 17                 # main.c:76:17
	movl	-12(%rbp), %eax
	.loc	5 76 5 is_stmt 0        # main.c:76:5
	movq	-8(%rbp), %rcx
	.loc	5 76 15                 # main.c:76:15
	movl	%eax, (%rcx)
	.loc	5 77 22 is_stmt 1       # main.c:77:22
	movq	-24(%rbp), %rdi
	.loc	5 77 17 is_stmt 0       # main.c:77:17
	callq	argv
	.loc	5 77 5                  # main.c:77:5
	movq	-8(%rbp), %rcx
	.loc	5 77 15                 # main.c:77:15
	movq	%rax, 24(%rcx)
	.loc	5 78 23 is_stmt 1       # main.c:78:23
	movq	-24(%rbp), %rdi
	.loc	5 78 18 is_stmt 0       # main.c:78:18
	callq	argc
	.loc	5 78 5                  # main.c:78:5
	movq	-8(%rbp), %rcx
	.loc	5 78 16                 # main.c:78:16
	movl	%eax, 16(%rcx)
	.loc	5 79 1 is_stmt 1        # main.c:79:1
	addq	$48, %rsp
	popq	%rbp
	.cfi_def_cfa %rsp, 8
	retq
.Ltmp24:
.Lfunc_end0:
	.size	read_args, .Lfunc_end0-read_args
	.cfi_endproc
                                        # -- End function
	.globl	main                    # -- Begin function main
	.p2align	4, 0x90
	.type	main,@function
main:                                   # @main
.Lfunc_begin1:
	.loc	5 82 0                  # main.c:82:0
	.cfi_startproc
# %bb.0:
	pushq	%rbp
	.cfi_def_cfa_offset 16
	.cfi_offset %rbp, -16
	movq	%rsp, %rbp
	.cfi_def_cfa_register %rbp
	pushq	%r14
	pushq	%rbx
	subq	$369568, %rsp           # imm = 0x5A3A0
	.cfi_offset %rbx, -32
	.cfi_offset %r14, -24
	movabsq	$read_args, %rax
	xorl	%ecx, %ecx
	movl	%ecx, %r9d
	leaq	-416(%rbp), %rdx
	movabsq	$END_CMDS, %r8
	leaq	-736(%rbp), %r10
	leaq	-576(%rbp), %r11
	leaq	-296(%rbp), %rbx
	xorl	%ecx, %ecx
	movl	$0, -20(%rbp)
	movl	%edi, -24(%rbp)
	movq	%rsi, -32(%rbp)
.Ltmp25:
	.loc	5 83 17 prologue_end    # main.c:83:17
	leaq	-64(%rbp), %rsi
.Ltmp26:
	#DEBUG_VALUE: main:args <- [$rsi+0]
	movq	%rsi, %r14
	movq	%r14, %rdi
	movq	%rsi, -369400(%rbp)     # 8-byte Spill
.Ltmp27:
	#DEBUG_VALUE: main:args <- [DW_OP_constu 369400, DW_OP_minus, DW_OP_deref] [$rbp+0]
	movl	%ecx, %esi
	movl	$32, %r14d
	movq	%rdx, -369408(%rbp)     # 8-byte Spill
	movq	%r14, %rdx
	movq	%rax, -369416(%rbp)     # 8-byte Spill
	movq	%r9, -369424(%rbp)      # 8-byte Spill
	movq	%r8, -369432(%rbp)      # 8-byte Spill
	movq	%r10, -369440(%rbp)     # 8-byte Spill
	movq	%r11, -369448(%rbp)     # 8-byte Spill
	movq	%rbx, -369456(%rbp)     # 8-byte Spill
	callq	memset
	.loc	5 91 16                 # main.c:91:16
	movq	.L__const.main.print_fmt_arg, %rax
	movq	%rax, -96(%rbp)
	movq	.L__const.main.print_fmt_arg+8, %rax
	movq	%rax, -88(%rbp)
	movq	.L__const.main.print_fmt_arg+16, %rax
	movq	%rax, -80(%rbp)
	movq	.L__const.main.print_fmt_arg+24, %rax
	movq	%rax, -72(%rbp)
	.loc	5 92 16                 # main.c:92:16
	movq	.L__const.main.nfa_fmt_arg, %rax
	movq	%rax, -128(%rbp)
	movq	.L__const.main.nfa_fmt_arg+8, %rax
	movq	%rax, -120(%rbp)
	movq	.L__const.main.nfa_fmt_arg+16, %rax
	movq	%rax, -112(%rbp)
	movq	.L__const.main.nfa_fmt_arg+24, %rax
	movq	%rax, -104(%rbp)
	.loc	5 93 16                 # main.c:93:16
	movq	.L__const.main.regex_arg, %rax
	movq	%rax, -160(%rbp)
	movq	.L__const.main.regex_arg+8, %rax
	movq	%rax, -152(%rbp)
	movq	.L__const.main.regex_arg+16, %rax
	movq	%rax, -144(%rbp)
	movq	.L__const.main.regex_arg+24, %rax
	movq	%rax, -136(%rbp)
	movq	-369400(%rbp), %rax     # 8-byte Reload
	.loc	5 95 48                 # main.c:95:48
	movl	-24(%rbp), %ecx
	.loc	5 95 54 is_stmt 0       # main.c:95:54
	movq	-32(%rbp), %r8
	.loc	5 95 70                 # main.c:95:70
	movl	$0, -200(%rbp)
	movq	$0, -192(%rbp)
	.loc	5 99 13 is_stmt 1       # main.c:99:13
	movq	help_arg, %rdx
	movq	%rdx, -296(%rbp)
	movq	help_arg+8, %rdx
	movq	%rdx, -288(%rbp)
	movq	help_arg+16, %rdx
	movq	%rdx, -280(%rbp)
	movq	help_arg+24, %rdx
	movq	%rdx, -272(%rbp)
	movq	version_arg, %rdx
	movq	%rdx, -264(%rbp)
	movq	version_arg+8, %rdx
	movq	%rdx, -256(%rbp)
	movq	version_arg+16, %rdx
	movq	%rdx, -248(%rbp)
	movq	version_arg+24, %rdx
	movq	%rdx, -240(%rbp)
	.loc	5 100 13                # main.c:100:13
	movq	END_ARGS, %rdx
	movq	%rdx, -232(%rbp)
	movq	END_ARGS+8, %rdx
	movq	%rdx, -224(%rbp)
	movq	END_ARGS+16, %rdx
	movq	%rdx, -216(%rbp)
	movq	END_ARGS+24, %rdx
	movq	%rdx, -208(%rbp)
	movq	-369456(%rbp), %rdx     # 8-byte Reload
	.loc	5 95 70                 # main.c:95:70
	movq	%rdx, -184(%rbp)
	.loc	5 103 14                # main.c:103:14
	movl	$1, -416(%rbp)
	movabsq	$.L.str.12, %rdi
	movq	%rdi, -408(%rbp)
	.loc	5 107 21                # main.c:107:21
	movq	-160(%rbp), %rdi
	movq	%rdi, -576(%rbp)
	movq	-152(%rbp), %rdi
	movq	%rdi, -568(%rbp)
	movq	-144(%rbp), %rdi
	movq	%rdi, -560(%rbp)
	movq	-136(%rbp), %rdi
	movq	%rdi, -552(%rbp)
	.loc	5 108 21                # main.c:108:21
	movq	-96(%rbp), %rdi
	movq	%rdi, -544(%rbp)
	movq	-88(%rbp), %rdi
	movq	%rdi, -536(%rbp)
	movq	-80(%rbp), %rdi
	movq	%rdi, -528(%rbp)
	movq	-72(%rbp), %rdi
	movq	%rdi, -520(%rbp)
	.loc	5 109 21                # main.c:109:21
	movq	help_arg, %rdi
	movq	%rdi, -512(%rbp)
	movq	help_arg+8, %rdi
	movq	%rdi, -504(%rbp)
	movq	help_arg+16, %rdi
	movq	%rdi, -496(%rbp)
	movq	help_arg+24, %rdi
	movq	%rdi, -488(%rbp)
	movq	version_arg, %rdi
	movq	%rdi, -480(%rbp)
	movq	version_arg+8, %rdi
	movq	%rdi, -472(%rbp)
	movq	version_arg+16, %rdi
	movq	%rdi, -464(%rbp)
	movq	version_arg+24, %rdi
	movq	%rdi, -456(%rbp)
	.loc	5 110 21                # main.c:110:21
	movq	END_ARGS, %rdi
	movq	%rdi, -448(%rbp)
	movq	END_ARGS+8, %rdi
	movq	%rdi, -440(%rbp)
	movq	END_ARGS+16, %rdi
	movq	%rdi, -432(%rbp)
	movq	END_ARGS+24, %rdi
	movq	%rdi, -424(%rbp)
	movq	-369448(%rbp), %rdi     # 8-byte Reload
	.loc	5 103 14                # main.c:103:14
	movq	%rdi, -400(%rbp)
	movq	$0, -392(%rbp)
	movabsq	$.L.str.13, %r9
	movq	%r9, -384(%rbp)
	movq	-369408(%rbp), %r9      # 8-byte Reload
	.loc	5 102 14                # main.c:102:14
	addq	$40, %r9
	.loc	5 115 13                # main.c:115:13
	movl	$2, -376(%rbp)
	movabsq	$.L.str.14, %r10
	movq	%r10, -368(%rbp)
	.loc	5 119 21                # main.c:119:21
	movq	-160(%rbp), %r10
	movq	%r10, -736(%rbp)
	movq	-152(%rbp), %r10
	movq	%r10, -728(%rbp)
	movq	-144(%rbp), %r10
	movq	%r10, -720(%rbp)
	movq	-136(%rbp), %r10
	movq	%r10, -712(%rbp)
	.loc	5 120 21                # main.c:120:21
	movq	-128(%rbp), %r10
	movq	%r10, -704(%rbp)
	movq	-120(%rbp), %r10
	movq	%r10, -696(%rbp)
	movq	-112(%rbp), %r10
	movq	%r10, -688(%rbp)
	movq	-104(%rbp), %r10
	movq	%r10, -680(%rbp)
	.loc	5 121 21                # main.c:121:21
	movq	help_arg, %r10
	movq	%r10, -672(%rbp)
	movq	help_arg+8, %r10
	movq	%r10, -664(%rbp)
	movq	help_arg+16, %r10
	movq	%r10, -656(%rbp)
	movq	help_arg+24, %r10
	movq	%r10, -648(%rbp)
	movq	version_arg, %r10
	movq	%r10, -640(%rbp)
	movq	version_arg+8, %r10
	movq	%r10, -632(%rbp)
	movq	version_arg+16, %r10
	movq	%r10, -624(%rbp)
	movq	version_arg+24, %r10
	movq	%r10, -616(%rbp)
	.loc	5 122 21                # main.c:122:21
	movq	END_ARGS, %r10
	movq	%r10, -608(%rbp)
	movq	END_ARGS+8, %r10
	movq	%r10, -600(%rbp)
	movq	END_ARGS+16, %r10
	movq	%r10, -592(%rbp)
	movq	END_ARGS+24, %r10
	movq	%r10, -584(%rbp)
	movq	-369440(%rbp), %r10     # 8-byte Reload
	.loc	5 115 13                # main.c:115:13
	movq	%r10, -360(%rbp)
	movq	$0, -352(%rbp)
	movabsq	$.L.str.15, %r11
	movq	%r11, -344(%rbp)
	.loc	5 102 14                # main.c:102:14
	addq	$40, %r9
	.loc	5 127 13                # main.c:127:13
	movq	%r9, %rdi
	movq	-369432(%rbp), %rsi     # 8-byte Reload
	movl	$40, %edx
	movq	%rax, -369464(%rbp)     # 8-byte Spill
	movl	%ecx, -369468(%rbp)     # 4-byte Spill
	movq	%r8, -369480(%rbp)      # 8-byte Spill
	callq	memcpy
	movq	-369408(%rbp), %rax     # 8-byte Reload
	.loc	5 95 70                 # main.c:95:70
	movq	%rax, -176(%rbp)
	movabsq	$.L.str.16, %rdx
	movq	%rdx, -168(%rbp)
	movq	-369464(%rbp), %rdi     # 8-byte Reload
	movq	-369416(%rbp), %rsi     # 8-byte Reload
	.loc	5 95 5 is_stmt 0        # main.c:95:5
	movabsq	$.L.str.11, %rdx
	movl	-369468(%rbp), %ecx     # 4-byte Reload
	movq	-369480(%rbp), %r8      # 8-byte Reload
	movq	-369424(%rbp), %r9      # 8-byte Reload
	leaq	-200(%rbp), %r10
	movq	%r10, (%rsp)
	callq	run_args
.Ltmp28:
	.loc	5 134 18 is_stmt 1      # main.c:134:18
	cmpl	$1, -64(%rbp)
.Ltmp29:
	.loc	5 134 9 is_stmt 0       # main.c:134:9
	jne	.LBB1_14
# %bb.1:
	#DEBUG_VALUE: main:args <- [DW_OP_constu 369400, DW_OP_minus, DW_OP_deref] [$rbp+0]
	.loc	5 0 9                   # main.c:0:9
	leaq	-120816(%rbp), %rsi
.Ltmp30:
	#DEBUG_VALUE: exprbuf <- [$rsi+0]
	.loc	5 136 39 is_stmt 1      # main.c:136:39
	leaq	-120848(%rbp), %rdi
.Ltmp31:
	#DEBUG_VALUE: econtext <- [$rdi+0]
	callq	expr_context
.Ltmp32:
	.loc	5 138 12                # main.c:138:12
	cmpq	$0, -56(%rbp)
.Ltmp33:
	.loc	5 138 12 is_stmt 0      # main.c:138:12
	je	.LBB1_3
# %bb.2:
	#DEBUG_VALUE: main:args <- [DW_OP_constu 369400, DW_OP_minus, DW_OP_deref] [$rbp+0]
	.loc	5 0 12                  # main.c:0:12
	movabsq	$expr_to_rval, %rax
.Ltmp34:
	.loc	5 139 42 is_stmt 1      # main.c:139:42
	movq	-56(%rbp), %rsi
	.loc	5 139 49 is_stmt 0      # main.c:139:49
	leaq	-120848(%rbp), %rcx
	.loc	5 139 23                # main.c:139:23
	leaq	-120920(%rbp), %rdi
	movq	%rcx, %rdx
	movq	%rax, %rcx
	movabsq	$expr_actions, %r8
	callq	parse_context
	leaq	-808(%rbp), %rax
	leaq	-120920(%rbp), %rcx
	movq	%rax, %rdi
	movq	%rcx, %rsi
	movl	$72, %edx
	callq	memcpy
	.loc	5 140 8 is_stmt 1       # main.c:140:8
	jmp	.LBB1_4
.Ltmp35:
.LBB1_3:
	#DEBUG_VALUE: main:args <- [DW_OP_constu 369400, DW_OP_minus, DW_OP_deref] [$rbp+0]
	.loc	5 0 8 is_stmt 0         # main.c:0:8
	movabsq	$expr_to_rval, %rax
.Ltmp36:
	.loc	5 141 52 is_stmt 1      # main.c:141:52
	leaq	-120848(%rbp), %rcx
	.loc	5 141 23 is_stmt 0      # main.c:141:23
	leaq	-120992(%rbp), %rdi
	movabsq	$.L.str.17, %rsi
	movq	%rcx, %rdx
	movq	%rax, %rcx
	movabsq	$expr_actions, %r8
	callq	parse_context
	leaq	-808(%rbp), %rax
	leaq	-120992(%rbp), %rcx
	movq	%rax, %rdi
	movq	%rcx, %rsi
	movl	$72, %edx
	callq	memcpy
.Ltmp37:
.LBB1_4:
	#DEBUG_VALUE: main:args <- [DW_OP_constu 369400, DW_OP_minus, DW_OP_deref] [$rbp+0]
	.loc	5 144 12 is_stmt 1      # main.c:144:12
	leaq	-808(%rbp), %rdi
	callq	parse_regex
.Ltmp38:
	.loc	5 144 12 is_stmt 0      # main.c:144:12
	testb	$1, %al
	jne	.LBB1_5
	jmp	.LBB1_12
.LBB1_5:
	#DEBUG_VALUE: main:args <- [DW_OP_constu 369400, DW_OP_minus, DW_OP_deref] [$rbp+0]
.Ltmp39:
	.loc	5 145 32 is_stmt 1      # main.c:145:32
	leaq	-120848(%rbp), %rdi
	callq	gexpr
	.loc	5 145 25 is_stmt 0      # main.c:145:25
	movq	%rax, -121000(%rbp)
.Ltmp40:
	.loc	5 147 28 is_stmt 1      # main.c:147:28
	cmpl	$3, -60(%rbp)
.Ltmp41:
	.loc	5 147 16 is_stmt 0      # main.c:147:16
	jne	.LBB1_7
# %bb.6:
	#DEBUG_VALUE: main:args <- [DW_OP_constu 369400, DW_OP_minus, DW_OP_deref] [$rbp+0]
	.loc	5 0 16                  # main.c:0:16
	xorl	%eax, %eax
	movl	%eax, %edx
	movabsq	$regex_to_graph, %rcx
.Ltmp42:
	.loc	5 148 26 is_stmt 1      # main.c:148:26
	movq	stdout, %rdi
	.loc	5 148 34 is_stmt 0      # main.c:148:34
	movq	-121000(%rbp), %rsi
	.loc	5 148 16                # main.c:148:16
	callq	print_dot
	.loc	5 149 12 is_stmt 1      # main.c:149:12
	jmp	.LBB1_11
.Ltmp43:
.LBB1_7:
	#DEBUG_VALUE: main:args <- [DW_OP_constu 369400, DW_OP_minus, DW_OP_deref] [$rbp+0]
	.loc	5 149 35 is_stmt 0      # main.c:149:35
	cmpl	$2, -60(%rbp)
.Ltmp44:
	.loc	5 149 23                # main.c:149:23
	jne	.LBB1_9
# %bb.8:
	#DEBUG_VALUE: main:args <- [DW_OP_constu 369400, DW_OP_minus, DW_OP_deref] [$rbp+0]
	.loc	5 0 23                  # main.c:0:23
	leaq	-120816(%rbp), %rax
.Ltmp45:
	.loc	5 150 65 is_stmt 1      # main.c:150:65
	movq	-120848(%rbp), %rcx
	.loc	5 150 73 is_stmt 0      # main.c:150:73
	subq	%rax, %rcx
	movq	%rcx, %rax
	cqto
	movl	$24, %ecx
	idivq	%rcx
	.loc	5 150 16                # main.c:150:16
	movabsq	$.L.str.18, %rdi
	movq	%rax, %rsi
	movb	$0, %al
	callq	printf
	leaq	-120816(%rbp), %rdi
	.loc	5 151 51 is_stmt 1      # main.c:151:51
	movq	-120848(%rbp), %rsi
	movl	%eax, -369484(%rbp)     # 4-byte Spill
	.loc	5 151 16 is_stmt 0      # main.c:151:16
	callq	print_expr_table
	.loc	5 152 12 is_stmt 1      # main.c:152:12
	jmp	.LBB1_10
.Ltmp46:
.LBB1_9:
	#DEBUG_VALUE: main:args <- [DW_OP_constu 369400, DW_OP_minus, DW_OP_deref] [$rbp+0]
	.loc	5 0 12 is_stmt 0        # main.c:0:12
	leaq	-120816(%rbp), %rax
.Ltmp47:
	.loc	5 153 65 is_stmt 1      # main.c:153:65
	movq	-120848(%rbp), %rcx
	.loc	5 153 73 is_stmt 0      # main.c:153:73
	subq	%rax, %rcx
	movq	%rcx, %rax
	cqto
	movl	$24, %ecx
	idivq	%rcx
	.loc	5 153 16                # main.c:153:16
	movabsq	$.L.str.18, %rdi
	movq	%rax, %rsi
	movb	$0, %al
	callq	printf
	.loc	5 154 27 is_stmt 1      # main.c:154:27
	movq	-121000(%rbp), %rdi
	movl	%eax, -369488(%rbp)     # 4-byte Spill
	.loc	5 154 16 is_stmt 0      # main.c:154:16
	callq	print_expr
.Ltmp48:
.LBB1_10:
	#DEBUG_VALUE: main:args <- [DW_OP_constu 369400, DW_OP_minus, DW_OP_deref] [$rbp+0]
	.loc	5 0 16                  # main.c:0:16
	jmp	.LBB1_11
.LBB1_11:
	#DEBUG_VALUE: main:args <- [DW_OP_constu 369400, DW_OP_minus, DW_OP_deref] [$rbp+0]
	.loc	5 156 8 is_stmt 1       # main.c:156:8
	jmp	.LBB1_13
.Ltmp49:
.LBB1_12:
	#DEBUG_VALUE: main:args <- [DW_OP_constu 369400, DW_OP_minus, DW_OP_deref] [$rbp+0]
	.loc	5 0 8 is_stmt 0         # main.c:0:8
	leaq	-808(%rbp), %rdi
.Ltmp50:
	.loc	5 157 30 is_stmt 1      # main.c:157:30
	callq	parse_error
	movl	%edx, -121024(%rbp)
	movq	%rax, -121032(%rbp)
	movq	-121032(%rbp), %rax
	movq	%rax, -121016(%rbp)
	movl	-121024(%rbp), %edx
	movl	%edx, -121008(%rbp)
	.loc	5 157 12 is_stmt 0      # main.c:157:12
	movq	-121016(%rbp), %rax
	movq	%rax, -121048(%rbp)
	movl	-121008(%rbp), %edx
	movl	%edx, -121040(%rbp)
	movq	-121048(%rbp), %rdi
	movl	-121040(%rbp), %esi
	callq	print_parse_error
	.loc	5 158 12 is_stmt 1      # main.c:158:12
	movl	$1, -20(%rbp)
	jmp	.LBB1_41
.Ltmp51:
.LBB1_13:
	#DEBUG_VALUE: main:args <- [DW_OP_constu 369400, DW_OP_minus, DW_OP_deref] [$rbp+0]
	.loc	5 160 5                 # main.c:160:5
	jmp	.LBB1_40
.Ltmp52:
.LBB1_14:
	#DEBUG_VALUE: main:args <- [DW_OP_constu 369400, DW_OP_minus, DW_OP_deref] [$rbp+0]
	.loc	5 160 25 is_stmt 0      # main.c:160:25
	cmpl	$2, -64(%rbp)
.Ltmp53:
	.loc	5 160 16                # main.c:160:16
	jne	.LBB1_39
# %bb.15:
	#DEBUG_VALUE: main:args <- [DW_OP_constu 369400, DW_OP_minus, DW_OP_deref] [$rbp+0]
	.loc	5 0 16                  # main.c:0:16
	leaq	-361056(%rbp), %rsi
.Ltmp54:
	#DEBUG_VALUE: statebuf <- [$rsi+0]
	.loc	5 162 39 is_stmt 1      # main.c:162:39
	leaq	-361112(%rbp), %rdi
.Ltmp55:
	#DEBUG_VALUE: ncontext <- [$rdi+0]
	callq	nfa_context
.Ltmp56:
	.loc	5 164 13                # main.c:164:13
	cmpq	$0, -56(%rbp)
.Ltmp57:
	.loc	5 164 13 is_stmt 0      # main.c:164:13
	je	.LBB1_17
# %bb.16:
	#DEBUG_VALUE: main:args <- [DW_OP_constu 369400, DW_OP_minus, DW_OP_deref] [$rbp+0]
.Ltmp58:
	.loc	5 165 28 is_stmt 1      # main.c:165:28
	movq	-56(%rbp), %rdi
	.loc	5 165 13 is_stmt 0      # main.c:165:13
	leaq	-361112(%rbp), %rsi
	callq	nfa_regex
	movq	%rax, -369496(%rbp)     # 8-byte Spill
	.loc	5 166 9 is_stmt 1       # main.c:166:9
	jmp	.LBB1_18
.Ltmp59:
.LBB1_17:
	#DEBUG_VALUE: main:args <- [DW_OP_constu 369400, DW_OP_minus, DW_OP_deref] [$rbp+0]
	.loc	5 167 13                # main.c:167:13
	movabsq	$.L.str.19, %rdi
	leaq	-361112(%rbp), %rsi
	callq	nfa_regex
	.loc	5 168 13                # main.c:168:13
	movabsq	$.L.str.20, %rdi
	leaq	-361112(%rbp), %rsi
	movq	%rax, -369504(%rbp)     # 8-byte Spill
	callq	nfa_regex
	.loc	5 169 13                # main.c:169:13
	movabsq	$.L.str.21, %rdi
	leaq	-361112(%rbp), %rsi
	movq	%rax, -369512(%rbp)     # 8-byte Spill
	callq	nfa_regex
	.loc	5 170 13                # main.c:170:13
	movabsq	$.L.str.22, %rdi
	leaq	-361112(%rbp), %rsi
	movq	%rax, -369520(%rbp)     # 8-byte Spill
	callq	nfa_regex
	.loc	5 171 13                # main.c:171:13
	movabsq	$.L.str.23, %rdi
	leaq	-361112(%rbp), %rsi
	movq	%rax, -369528(%rbp)     # 8-byte Spill
	callq	nfa_regex
	movq	%rax, -369536(%rbp)     # 8-byte Spill
.Ltmp60:
.LBB1_18:
	#DEBUG_VALUE: main:args <- [DW_OP_constu 369400, DW_OP_minus, DW_OP_deref] [$rbp+0]
	.loc	5 174 27                # main.c:174:27
	leaq	-361136(%rbp), %rdi
.Ltmp61:
	#DEBUG_VALUE: mach <- [$rdi+0]
	leaq	-361112(%rbp), %rsi
	callq	gmachine
.Ltmp62:
	.loc	5 176 14                # main.c:176:14
	leaq	-361112(%rbp), %rdi
	callq	has_nfa_error
.Ltmp63:
	.loc	5 176 13 is_stmt 0      # main.c:176:13
	testb	$1, %al
	jne	.LBB1_37
# %bb.19:
	#DEBUG_VALUE: main:args <- [DW_OP_constu 369400, DW_OP_minus, DW_OP_deref] [$rbp+0]
.Ltmp64:
	.loc	5 177 29 is_stmt 1      # main.c:177:29
	cmpl	$2, -60(%rbp)
.Ltmp65:
	.loc	5 177 17 is_stmt 0      # main.c:177:17
	jne	.LBB1_21
# %bb.20:
	#DEBUG_VALUE: main:args <- [DW_OP_constu 369400, DW_OP_minus, DW_OP_deref] [$rbp+0]
.Ltmp66:
	.loc	5 178 65 is_stmt 1      # main.c:178:65
	movq	-361136(%rbp), %rsi
	.loc	5 178 78 is_stmt 0      # main.c:178:78
	movq	-361128(%rbp), %rax
	.loc	5 178 72                # main.c:178:72
	movq	(%rax), %rdx
	.loc	5 178 17                # main.c:178:17
	movabsq	$.L.str.24, %rdi
	movb	$0, %al
	callq	printf
	leaq	-361056(%rbp), %rdi
	.loc	5 179 54 is_stmt 1      # main.c:179:54
	movq	-361112(%rbp), %rsi
	movl	%eax, -369540(%rbp)     # 4-byte Spill
	.loc	5 179 17 is_stmt 0      # main.c:179:17
	callq	print_state_table
	.loc	5 180 13 is_stmt 1      # main.c:180:13
	jmp	.LBB1_36
.Ltmp67:
.LBB1_21:
	#DEBUG_VALUE: main:args <- [DW_OP_constu 369400, DW_OP_minus, DW_OP_deref] [$rbp+0]
	.loc	5 180 36 is_stmt 0      # main.c:180:36
	cmpl	$3, -60(%rbp)
.Ltmp68:
	.loc	5 180 24                # main.c:180:24
	jne	.LBB1_23
# %bb.22:
	#DEBUG_VALUE: main:args <- [DW_OP_constu 369400, DW_OP_minus, DW_OP_deref] [$rbp+0]
.Ltmp69:
	.loc	5 181 35 is_stmt 1      # main.c:181:35
	movq	-361136(%rbp), %rdi
	.loc	5 181 17 is_stmt 0      # main.c:181:17
	callq	nfa_to_graph
	.loc	5 182 13 is_stmt 1      # main.c:182:13
	jmp	.LBB1_35
.Ltmp70:
.LBB1_23:
	#DEBUG_VALUE: main:args <- [DW_OP_constu 369400, DW_OP_minus, DW_OP_deref] [$rbp+0]
	.loc	5 183 23                # main.c:183:23
	movq	$0, -361144(%rbp)
.Ltmp71:
	.loc	5 185 31                # main.c:185:31
	cmpl	$0, -48(%rbp)
.Ltmp72:
	.loc	5 185 21 is_stmt 0      # main.c:185:21
	jne	.LBB1_27
# %bb.24:
	#DEBUG_VALUE: main:args <- [DW_OP_constu 369400, DW_OP_minus, DW_OP_deref] [$rbp+0]
	.loc	5 0 21                  # main.c:0:21
	xorl	%edi, %edi
.Ltmp73:
	.loc	5 186 26 is_stmt 1      # main.c:186:26
	callq	isatty
	cmpl	$0, %eax
.Ltmp74:
	.loc	5 186 25 is_stmt 0      # main.c:186:25
	jne	.LBB1_26
# %bb.25:
	#DEBUG_VALUE: main:args <- [DW_OP_constu 369400, DW_OP_minus, DW_OP_deref] [$rbp+0]
.Ltmp75:
	.loc	5 187 30 is_stmt 1      # main.c:187:30
	movq	stdin, %rax
	.loc	5 187 28 is_stmt 0      # main.c:187:28
	movq	%rax, -361144(%rbp)
.Ltmp76:
.LBB1_26:
	#DEBUG_VALUE: main:args <- [DW_OP_constu 369400, DW_OP_minus, DW_OP_deref] [$rbp+0]
	.loc	5 189 17 is_stmt 1      # main.c:189:17
	jmp	.LBB1_28
.Ltmp77:
.LBB1_27:
	#DEBUG_VALUE: main:args <- [DW_OP_constu 369400, DW_OP_minus, DW_OP_deref] [$rbp+0]
	.loc	5 190 37                # main.c:190:37
	movq	-40(%rbp), %rax
	.loc	5 190 32 is_stmt 0      # main.c:190:32
	movq	(%rax), %rdi
	.loc	5 190 26                # main.c:190:26
	movabsq	$.L.str.25, %rsi
	callq	fopen
	.loc	5 190 24                # main.c:190:24
	movq	%rax, -361144(%rbp)
.Ltmp78:
.LBB1_28:
	#DEBUG_VALUE: main:args <- [DW_OP_constu 369400, DW_OP_minus, DW_OP_deref] [$rbp+0]
	.loc	5 193 21 is_stmt 1      # main.c:193:21
	cmpq	$0, -361144(%rbp)
.Ltmp79:
	.loc	5 193 21 is_stmt 0      # main.c:193:21
	je	.LBB1_33
# %bb.29:
	#DEBUG_VALUE: main:args <- [DW_OP_constu 369400, DW_OP_minus, DW_OP_deref] [$rbp+0]
.LBB1_30:                               # =>This Inner Loop Header: Depth=1
	#DEBUG_VALUE: main:args <- [DW_OP_constu 369400, DW_OP_minus, DW_OP_deref] [$rbp+0]
	.loc	5 0 21                  # main.c:0:21
	leaq	-369344(%rbp), %rdi
.Ltmp80:
	.loc	5 195 47 is_stmt 1      # main.c:195:47
	movq	-361144(%rbp), %rdx
	.loc	5 195 28 is_stmt 0      # main.c:195:28
	movl	$8192, %esi             # imm = 0x2000
	callq	fgets
	.loc	5 195 21                # main.c:195:21
	cmpq	$0, %rax
	je	.LBB1_32
# %bb.31:                               #   in Loop: Header=BB1_30 Depth=1
	#DEBUG_VALUE: main:args <- [DW_OP_constu 369400, DW_OP_minus, DW_OP_deref] [$rbp+0]
	.loc	5 0 21                  # main.c:0:21
	leaq	-369344(%rbp), %rax
.Ltmp81:
	.loc	5 196 29 is_stmt 1      # main.c:196:29
	movq	%rax, %rdi
	movq	%rax, -369552(%rbp)     # 8-byte Spill
	callq	strlen
	.loc	5 196 41 is_stmt 0      # main.c:196:41
	subq	$1, %rax
	.loc	5 196 46                # main.c:196:46
	movb	$0, -369344(%rbp,%rax)
	movq	-369552(%rbp), %rdi     # 8-byte Reload
	.loc	5 197 40 is_stmt 1      # main.c:197:40
	leaq	-361112(%rbp), %rsi
	callq	nfa_match
	leaq	-369344(%rbp), %rsi
	.loc	5 197 30 is_stmt 0      # main.c:197:30
	andb	$1, %al
	movb	%al, -369345(%rbp)
	.loc	5 198 48 is_stmt 1      # main.c:198:48
	movb	-369345(%rbp), %al
	testb	$1, %al
	movabsq	$.L.str.27, %rdi
	movabsq	$.L.str.28, %rcx
	cmovneq	%rdi, %rcx
	.loc	5 198 25 is_stmt 0      # main.c:198:25
	movabsq	$.L.str.26, %rdi
	movq	%rcx, %rdx
	movb	$0, %al
	callq	printf
	movl	%eax, -369556(%rbp)     # 4-byte Spill
.Ltmp82:
	.loc	5 195 21 is_stmt 1      # main.c:195:21
	jmp	.LBB1_30
.LBB1_32:
	#DEBUG_VALUE: main:args <- [DW_OP_constu 369400, DW_OP_minus, DW_OP_deref] [$rbp+0]
	.loc	5 201 28                # main.c:201:28
	movq	-361144(%rbp), %rdi
	.loc	5 201 21 is_stmt 0      # main.c:201:21
	callq	fclose
	movl	%eax, -369560(%rbp)     # 4-byte Spill
	.loc	5 202 17 is_stmt 1      # main.c:202:17
	jmp	.LBB1_34
.Ltmp83:
.LBB1_33:
	#DEBUG_VALUE: main:args <- [DW_OP_constu 369400, DW_OP_minus, DW_OP_deref] [$rbp+0]
	.loc	5 203 29                # main.c:203:29
	movq	stderr, %rdi
	.loc	5 203 21 is_stmt 0      # main.c:203:21
	movabsq	$.L.str.29, %rsi
	movb	$0, %al
	callq	fprintf
	.loc	5 204 21 is_stmt 1      # main.c:204:21
	movl	$1, -20(%rbp)
	movl	%eax, -369564(%rbp)     # 4-byte Spill
	jmp	.LBB1_41
.Ltmp84:
.LBB1_34:
	#DEBUG_VALUE: main:args <- [DW_OP_constu 369400, DW_OP_minus, DW_OP_deref] [$rbp+0]
	.loc	5 0 21 is_stmt 0        # main.c:0:21
	jmp	.LBB1_35
.LBB1_35:
	#DEBUG_VALUE: main:args <- [DW_OP_constu 369400, DW_OP_minus, DW_OP_deref] [$rbp+0]
	jmp	.LBB1_36
.LBB1_36:
	#DEBUG_VALUE: main:args <- [DW_OP_constu 369400, DW_OP_minus, DW_OP_deref] [$rbp+0]
	.loc	5 207 9 is_stmt 1       # main.c:207:9
	jmp	.LBB1_38
.Ltmp85:
.LBB1_37:
	#DEBUG_VALUE: main:args <- [DW_OP_constu 369400, DW_OP_minus, DW_OP_deref] [$rbp+0]
	.loc	5 0 9 is_stmt 0         # main.c:0:9
	leaq	-361112(%rbp), %rdi
.Ltmp86:
	.loc	5 208 29 is_stmt 1      # main.c:208:29
	callq	nfa_error
	movl	%edx, -369368(%rbp)
	movq	%rax, -369376(%rbp)
	movq	-369376(%rbp), %rax
	movq	%rax, -369360(%rbp)
	movl	-369368(%rbp), %edx
	movl	%edx, -369352(%rbp)
	.loc	5 208 13 is_stmt 0      # main.c:208:13
	movq	-369360(%rbp), %rax
	movq	%rax, -369392(%rbp)
	movl	-369352(%rbp), %edx
	movl	%edx, -369384(%rbp)
	movq	-369392(%rbp), %rdi
	movl	-369384(%rbp), %esi
	callq	print_nfa_error
	.loc	5 209 13 is_stmt 1      # main.c:209:13
	movl	$1, -20(%rbp)
	jmp	.LBB1_41
.Ltmp87:
.LBB1_38:
	#DEBUG_VALUE: main:args <- [DW_OP_constu 369400, DW_OP_minus, DW_OP_deref] [$rbp+0]
	.loc	5 211 5                 # main.c:211:5
	jmp	.LBB1_39
.Ltmp88:
.LBB1_39:
	#DEBUG_VALUE: main:args <- [DW_OP_constu 369400, DW_OP_minus, DW_OP_deref] [$rbp+0]
	.loc	5 0 5 is_stmt 0         # main.c:0:5
	jmp	.LBB1_40
.LBB1_40:
	#DEBUG_VALUE: main:args <- [DW_OP_constu 369400, DW_OP_minus, DW_OP_deref] [$rbp+0]
	.loc	5 213 5 is_stmt 1       # main.c:213:5
	movl	$0, -20(%rbp)
.LBB1_41:
	#DEBUG_VALUE: main:args <- [DW_OP_constu 369400, DW_OP_minus, DW_OP_deref] [$rbp+0]
	.loc	5 214 1                 # main.c:214:1
	movl	-20(%rbp), %eax
	addq	$369568, %rsp           # imm = 0x5A3A0
	popq	%rbx
	popq	%r14
	popq	%rbp
	.cfi_def_cfa %rsp, 8
	retq
.Ltmp89:
.Lfunc_end1:
	.size	main, .Lfunc_end1-main
	.cfi_endproc
                                        # -- End function
	.type	.L.str,@object          # @.str
	.section	.rodata.str1.1,"aMS",@progbits,1
.L.str:
	.asciz	"help"
	.size	.L.str, 5

	.type	.L.str.1,@object        # @.str.1
.L.str.1:
	.asciz	"Print help"
	.size	.L.str.1, 11

	.type	help_arg,@object        # @help_arg
	.data
	.globl	help_arg
	.p2align	3
help_arg:
	.long	4294967294              # 0xfffffffe
	.zero	4
	.quad	.L.str
	.byte	0                       # 0x0
	.zero	3
	.long	0                       # 0x0
	.quad	.L.str.1
	.size	help_arg, 32

	.type	.L.str.2,@object        # @.str.2
	.section	.rodata.str1.1,"aMS",@progbits,1
.L.str.2:
	.asciz	"version"
	.size	.L.str.2, 8

	.type	.L.str.3,@object        # @.str.3
.L.str.3:
	.asciz	"Print version"
	.size	.L.str.3, 14

	.type	version_arg,@object     # @version_arg
	.data
	.globl	version_arg
	.p2align	3
version_arg:
	.long	4294967293              # 0xfffffffd
	.zero	4
	.quad	.L.str.2
	.byte	0                       # 0x0
	.zero	3
	.long	0                       # 0x0
	.quad	.L.str.3
	.size	version_arg, 32

	.type	END_ARGS,@object        # @END_ARGS
	.section	.rodata,"a",@progbits
	.globl	END_ARGS
	.p2align	3
END_ARGS:
	.long	4294967295              # 0xffffffff
	.zero	4
	.quad	0
	.byte	0                       # 0x0
	.zero	3
	.long	0                       # 0x0
	.quad	0
	.size	END_ARGS, 32

	.type	END_CMDS,@object        # @END_CMDS
	.globl	END_CMDS
	.p2align	3
END_CMDS:
	.long	4294967295              # 0xffffffff
	.zero	4
	.quad	0
	.quad	0
	.quad	0
	.quad	0
	.size	END_CMDS, 40

	.type	.L.str.4,@object        # @.str.4
	.section	.rodata.str1.1,"aMS",@progbits,1
.L.str.4:
	.asciz	"dot"
	.size	.L.str.4, 4

	.type	.L.str.5,@object        # @.str.5
.L.str.5:
	.asciz	"table"
	.size	.L.str.5, 6

	.type	.L.str.6,@object        # @.str.6
.L.str.6:
	.asciz	"tree"
	.size	.L.str.6, 5

	.type	.L.str.7,@object        # @.str.7
.L.str.7:
	.asciz	"format"
	.size	.L.str.7, 7

	.type	.L.str.8,@object        # @.str.8
.L.str.8:
	.asciz	"Output format: dot, table, or tree"
	.size	.L.str.8, 35

	.type	.L__const.main.print_fmt_arg,@object # @__const.main.print_fmt_arg
	.section	.rodata,"a",@progbits
	.p2align	3
.L__const.main.print_fmt_arg:
	.long	0                       # 0x0
	.zero	4
	.quad	.L.str.7
	.byte	102                     # 0x66
	.zero	3
	.long	1                       # 0x1
	.quad	.L.str.8
	.size	.L__const.main.print_fmt_arg, 32

	.type	.L.str.9,@object        # @.str.9
	.section	.rodata.str1.1,"aMS",@progbits,1
.L.str.9:
	.asciz	"Output format: table or dot"
	.size	.L.str.9, 28

	.type	.L__const.main.nfa_fmt_arg,@object # @__const.main.nfa_fmt_arg
	.section	.rodata,"a",@progbits
	.p2align	3
.L__const.main.nfa_fmt_arg:
	.long	0                       # 0x0
	.zero	4
	.quad	.L.str.7
	.byte	102                     # 0x66
	.zero	3
	.long	1                       # 0x1
	.quad	.L.str.9
	.size	.L__const.main.nfa_fmt_arg, 32

	.type	.L.str.10,@object       # @.str.10
	.section	.rodata.str1.1,"aMS",@progbits,1
.L.str.10:
	.asciz	"Regular expression"
	.size	.L.str.10, 19

	.type	.L__const.main.regex_arg,@object # @__const.main.regex_arg
	.section	.rodata,"a",@progbits
	.p2align	3
.L__const.main.regex_arg:
	.long	1                       # 0x1
	.zero	4
	.quad	0
	.byte	114                     # 0x72
	.zero	3
	.long	1                       # 0x1
	.quad	.L.str.10
	.size	.L__const.main.regex_arg, 32

	.type	.L.str.11,@object       # @.str.11
	.section	.rodata.str1.1,"aMS",@progbits,1
.L.str.11:
	.asciz	"1.0.0"
	.size	.L.str.11, 6

	.type	.L.str.12,@object       # @.str.12
.L.str.12:
	.asciz	"print"
	.size	.L.str.12, 6

	.type	.L.str.13,@object       # @.str.13
.L.str.13:
	.asciz	"Print the syntax tree for each regular expression"
	.size	.L.str.13, 50

	.type	.L.str.14,@object       # @.str.14
.L.str.14:
	.asciz	"nfa"
	.size	.L.str.14, 4

	.type	.L.str.15,@object       # @.str.15
.L.str.15:
	.asciz	"Construct and simulate an NFA"
	.size	.L.str.15, 30

	.type	.L.str.16,@object       # @.str.16
.L.str.16:
	.asciz	"Construct and simulate automata"
	.size	.L.str.16, 32

	.type	expr_actions,@object    # @expr_actions
	.comm	expr_actions,80,16
	.type	.L.str.17,@object       # @.str.17
.L.str.17:
	.asciz	"(a|b)*abbc?"
	.size	.L.str.17, 12

	.type	.L.str.18,@object       # @.str.18
.L.str.18:
	.asciz	"constructed %ld expressions\n"
	.size	.L.str.18, 29

	.type	.L.str.19,@object       # @.str.19
.L.str.19:
	.asciz	"if"
	.size	.L.str.19, 3

	.type	.L.str.20,@object       # @.str.20
.L.str.20:
	.asciz	"else"
	.size	.L.str.20, 5

	.type	.L.str.21,@object       # @.str.21
.L.str.21:
	.asciz	"for"
	.size	.L.str.21, 4

	.type	.L.str.22,@object       # @.str.22
.L.str.22:
	.asciz	"while"
	.size	.L.str.22, 6

	.type	.L.str.23,@object       # @.str.23
.L.str.23:
	.asciz	"do"
	.size	.L.str.23, 3

	.type	.L.str.24,@object       # @.str.24
.L.str.24:
	.asciz	"start state: %p, end state: %p\n"
	.size	.L.str.24, 32

	.type	.L.str.25,@object       # @.str.25
.L.str.25:
	.asciz	"r"
	.size	.L.str.25, 2

	.type	.L.str.26,@object       # @.str.26
.L.str.26:
	.asciz	"%s %s\n"
	.size	.L.str.26, 7

	.type	.L.str.27,@object       # @.str.27
.L.str.27:
	.asciz	"matches"
	.size	.L.str.27, 8

	.type	.L.str.28,@object       # @.str.28
.L.str.28:
	.asciz	"does not match"
	.size	.L.str.28, 15

	.type	.L.str.29,@object       # @.str.29
.L.str.29:
	.asciz	"no input file\n"
	.size	.L.str.29, 15

	.type	nfa_actions,@object     # @nfa_actions
	.comm	nfa_actions,80,16
	.file	12 "/home/wroathe/compilers/src/auto" "./parser.h"
	.file	13 "/usr/include/x86_64-linux-gnu/bits" "libio.h"
	.file	14 "/usr/include/x86_64-linux-gnu/bits/types" "FILE.h"
	.section	".note.GNU-stack","",@progbits
	.addrsig
	.addrsig_sym read_args
	.addrsig_sym readarg
	.addrsig_sym strcmp
	.addrsig_sym argval
	.addrsig_sym print_usage
	.addrsig_sym exit
	.addrsig_sym argv
	.addrsig_sym argc
	.addrsig_sym run_args
	.addrsig_sym expr_context
	.addrsig_sym parse_context
	.addrsig_sym expr_to_rval
	.addrsig_sym parse_regex
	.addrsig_sym gexpr
	.addrsig_sym print_dot
	.addrsig_sym regex_to_graph
	.addrsig_sym printf
	.addrsig_sym print_expr_table
	.addrsig_sym print_expr
	.addrsig_sym print_parse_error
	.addrsig_sym parse_error
	.addrsig_sym nfa_context
	.addrsig_sym nfa_regex
	.addrsig_sym gmachine
	.addrsig_sym has_nfa_error
	.addrsig_sym print_state_table
	.addrsig_sym nfa_to_graph
	.addrsig_sym isatty
	.addrsig_sym fopen
	.addrsig_sym fgets
	.addrsig_sym strlen
	.addrsig_sym nfa_match
	.addrsig_sym fclose
	.addrsig_sym fprintf
	.addrsig_sym print_nfa_error
	.addrsig_sym nfa_error
	.addrsig_sym help_arg
	.addrsig_sym version_arg
	.addrsig_sym END_ARGS
	.addrsig_sym END_CMDS
	.addrsig_sym stderr
	.addrsig_sym expr_actions
	.addrsig_sym stdout
	.addrsig_sym stdin