	.text
	.file	"print_ast.c"
	.file	1 "/home/wroathe/compilers/src/auto" "./result_types.h"
	.file	2 "/home/wroathe/compilers/src/auto" "./ast.h"
	.globl	print_expr              # -- Begin function print_expr
	.p2align	4, 0x90
	.type	print_expr,@function
print_expr:                             # @print_expr
.Lfunc_begin0:
	.file	3 "/home/wroathe/compilers/src/auto" "print_ast.c"
	.loc	3 12 0                  # print_ast.c:12:0
	.cfi_startproc
# %bb.0:
	pushq	%rbp
	.cfi_def_cfa_offset 16
	.cfi_offset %rbp, -16
	movq	%rsp, %rbp
	.cfi_def_cfa_register %rbp
	subq	$96, %rsp
	movq	%rdi, -8(%rbp)
.Ltmp0:
	.loc	3 15 18 prologue_end    # print_ast.c:15:18
	movl	$5000, %edi             # imm = 0x1388
	movl	$8, %esi
	callq	calloc
	.loc	3 15 16 is_stmt 0       # print_ast.c:15:16
	movq	%rax, -24(%rbp)
	.loc	3 15 11                 # print_ast.c:15:11
	movq	%rax, -16(%rbp)
.Ltmp1:
	.loc	3 16 5 is_stmt 1        # print_ast.c:16:5
	cmpq	$0, -16(%rbp)
.Ltmp2:
	.loc	3 16 5 is_stmt 0        # print_ast.c:16:5
	je	.LBB0_2
# %bb.1:
	jmp	.LBB0_3
.LBB0_2:
.Ltmp3:
	.loc	3 16 5                  # print_ast.c:16:5
	movabsq	$.L.str, %rdi
	movabsq	$.L.str.1, %rsi
	movl	$16, %edx
	movabsq	$.L__PRETTY_FUNCTION__.print_expr, %rcx
	callq	__assert_fail
.Ltmp4:
.LBB0_3:
	.loc	3 18 13 is_stmt 1       # print_ast.c:18:13
	movq	-8(%rbp), %rax
	.loc	3 18 8 is_stmt 0        # print_ast.c:18:8
	movq	-24(%rbp), %rcx
	movq	%rcx, %rdx
	addq	$8, %rdx
	movq	%rdx, -24(%rbp)
	.loc	3 18 11                 # print_ast.c:18:11
	movq	%rax, (%rcx)
	.loc	3 20 9 is_stmt 1        # print_ast.c:20:9
	movl	$0, -28(%rbp)
.LBB0_4:                                # =>This Inner Loop Header: Depth=1
	.loc	3 21 12                 # print_ast.c:21:12
	movq	-24(%rbp), %rax
	.loc	3 21 15 is_stmt 0       # print_ast.c:21:15
	cmpq	-16(%rbp), %rax
	.loc	3 21 5                  # print_ast.c:21:5
	jbe	.LBB0_20
# %bb.5:                                #   in Loop: Header=BB0_4 Depth=1
.Ltmp5:
	.loc	3 22 17 is_stmt 1       # print_ast.c:22:17
	movq	-24(%rbp), %rax
	movq	%rax, %rcx
	addq	$-8, %rcx
	movq	%rcx, -24(%rbp)
	.loc	3 22 16 is_stmt 0       # print_ast.c:22:16
	movq	-8(%rax), %rax
	.loc	3 22 14                 # print_ast.c:22:14
	movq	%rax, -8(%rbp)
.Ltmp6:
	.loc	3 24 18 is_stmt 1       # print_ast.c:24:18
	cmpq	$0, -8(%rbp)
.Ltmp7:
	.loc	3 24 13 is_stmt 0       # print_ast.c:24:13
	jne	.LBB0_7
# %bb.6:                                #   in Loop: Header=BB0_4 Depth=1
.Ltmp8:
	.loc	3 25 25 is_stmt 1       # print_ast.c:25:25
	movl	-28(%rbp), %eax
	addl	$-1, %eax
	movl	%eax, -28(%rbp)
	.loc	3 26 9                  # print_ast.c:26:9
	jmp	.LBB0_19
.Ltmp9:
.LBB0_7:                                #   in Loop: Header=BB0_4 Depth=1
	.loc	3 27 21                 # print_ast.c:27:21
	movq	-8(%rbp), %rax
	.loc	3 27 27 is_stmt 0       # print_ast.c:27:27
	movl	(%rax), %ecx
	movl	%ecx, %eax
	movq	%rax, %rdx
	subq	$9, %rdx
	movq	%rax, -40(%rbp)         # 8-byte Spill
	movq	%rdx, -48(%rbp)         # 8-byte Spill
	.loc	3 27 13                 # print_ast.c:27:13
	ja	.LBB0_18
# %bb.21:                               #   in Loop: Header=BB0_4 Depth=1
	.loc	3 0 13                  # print_ast.c:0:13
	movq	-40(%rbp), %rax         # 8-byte Reload
	movq	.LJTI0_0(,%rax,8), %rcx
	jmpq	*%rcx
.LBB0_8:                                #   in Loop: Header=BB0_4 Depth=1
.Ltmp10:
	.loc	3 29 29 is_stmt 1       # print_ast.c:29:29
	movq	stderr, %rdi
	.loc	3 29 21 is_stmt 0       # print_ast.c:29:21
	movabsq	$.L.str.2, %rsi
	movb	$0, %al
	callq	fprintf
	movl	%eax, -52(%rbp)         # 4-byte Spill
	.loc	3 30 21 is_stmt 1       # print_ast.c:30:21
	jmp	.LBB0_18
.LBB0_9:                                #   in Loop: Header=BB0_4 Depth=1
	.loc	3 32 28                 # print_ast.c:32:28
	movl	-28(%rbp), %edi
	.loc	3 32 21 is_stmt 0       # print_ast.c:32:21
	callq	indent
	.loc	3 33 21 is_stmt 1       # print_ast.c:33:21
	movabsq	$.L.str.3, %rdi
	movb	$0, %al
	callq	printf
	movl	%eax, -56(%rbp)         # 4-byte Spill
	.loc	3 34 21                 # print_ast.c:34:21
	jmp	.LBB0_18
.LBB0_10:                               #   in Loop: Header=BB0_4 Depth=1
	.loc	3 36 28                 # print_ast.c:36:28
	movl	-28(%rbp), %edi
	.loc	3 36 21 is_stmt 0       # print_ast.c:36:21
	callq	indent
	.loc	3 37 21 is_stmt 1       # print_ast.c:37:21
	movabsq	$.L.str.4, %rdi
	movb	$0, %al
	callq	printf
	movl	%eax, -60(%rbp)         # 4-byte Spill
	.loc	3 38 21                 # print_ast.c:38:21
	jmp	.LBB0_18
.LBB0_11:                               #   in Loop: Header=BB0_4 Depth=1
	.loc	3 40 28                 # print_ast.c:40:28
	movl	-28(%rbp), %edi
	.loc	3 40 21 is_stmt 0       # print_ast.c:40:21
	callq	indent
	.loc	3 41 21 is_stmt 1       # print_ast.c:41:21
	movabsq	$.L.str.5, %rdi
	movb	$0, %al
	callq	printf
	.loc	3 42 33                 # print_ast.c:42:33
	movl	-28(%rbp), %ecx
	addl	$1, %ecx
	movl	%ecx, -28(%rbp)
	.loc	3 43 24                 # print_ast.c:43:24
	movq	-24(%rbp), %rdi
	movq	%rdi, %rdx
	addq	$8, %rdx
	movq	%rdx, -24(%rbp)
	.loc	3 43 27 is_stmt 0       # print_ast.c:43:27
	movq	$0, (%rdi)
	.loc	3 44 29 is_stmt 1       # print_ast.c:44:29
	movq	-8(%rbp), %rdx
	.loc	3 44 35 is_stmt 0       # print_ast.c:44:35
	movq	16(%rdx), %rdx
	.loc	3 44 24                 # print_ast.c:44:24
	movq	-24(%rbp), %rdi
	movq	%rdi, %rsi
	addq	$8, %rsi
	movq	%rsi, -24(%rbp)
	.loc	3 44 27                 # print_ast.c:44:27
	movq	%rdx, (%rdi)
	.loc	3 45 29 is_stmt 1       # print_ast.c:45:29
	movq	-8(%rbp), %rdx
	.loc	3 45 35 is_stmt 0       # print_ast.c:45:35
	movq	8(%rdx), %rdx
	.loc	3 45 24                 # print_ast.c:45:24
	movq	-24(%rbp), %rsi
	movq	%rsi, %rdi
	addq	$8, %rdi
	movq	%rdi, -24(%rbp)
	.loc	3 45 27                 # print_ast.c:45:27
	movq	%rdx, (%rsi)
	movl	%eax, -64(%rbp)         # 4-byte Spill
	.loc	3 46 21 is_stmt 1       # print_ast.c:46:21
	jmp	.LBB0_18
.LBB0_12:                               #   in Loop: Header=BB0_4 Depth=1
	.loc	3 48 28                 # print_ast.c:48:28
	movl	-28(%rbp), %edi
	.loc	3 48 21 is_stmt 0       # print_ast.c:48:21
	callq	indent
	.loc	3 49 21 is_stmt 1       # print_ast.c:49:21
	movabsq	$.L.str.6, %rdi
	movb	$0, %al
	callq	printf
	.loc	3 50 33                 # print_ast.c:50:33
	movl	-28(%rbp), %ecx
	addl	$1, %ecx
	movl	%ecx, -28(%rbp)
	.loc	3 51 24                 # print_ast.c:51:24
	movq	-24(%rbp), %rdi
	movq	%rdi, %rdx
	addq	$8, %rdx
	movq	%rdx, -24(%rbp)
	.loc	3 51 27 is_stmt 0       # print_ast.c:51:27
	movq	$0, (%rdi)
	.loc	3 52 29 is_stmt 1       # print_ast.c:52:29
	movq	-8(%rbp), %rdx
	.loc	3 52 35 is_stmt 0       # print_ast.c:52:35
	movq	16(%rdx), %rdx
	.loc	3 52 24                 # print_ast.c:52:24
	movq	-24(%rbp), %rdi
	movq	%rdi, %rsi
	addq	$8, %rsi
	movq	%rsi, -24(%rbp)
	.loc	3 52 27                 # print_ast.c:52:27
	movq	%rdx, (%rdi)
	.loc	3 53 29 is_stmt 1       # print_ast.c:53:29
	movq	-8(%rbp), %rdx
	.loc	3 53 35 is_stmt 0       # print_ast.c:53:35
	movq	8(%rdx), %rdx
	.loc	3 53 24                 # print_ast.c:53:24
	movq	-24(%rbp), %rsi
	movq	%rsi, %rdi
	addq	$8, %rdi
	movq	%rdi, -24(%rbp)
	.loc	3 53 27                 # print_ast.c:53:27
	movq	%rdx, (%rsi)
	movl	%eax, -68(%rbp)         # 4-byte Spill
	.loc	3 54 21 is_stmt 1       # print_ast.c:54:21
	jmp	.LBB0_18
.LBB0_13:                               #   in Loop: Header=BB0_4 Depth=1
	.loc	3 56 28                 # print_ast.c:56:28
	movl	-28(%rbp), %edi
	.loc	3 56 21 is_stmt 0       # print_ast.c:56:21
	callq	indent
	.loc	3 57 21 is_stmt 1       # print_ast.c:57:21
	movabsq	$.L.str.7, %rdi
	movb	$0, %al
	callq	printf
	.loc	3 58 33                 # print_ast.c:58:33
	movl	-28(%rbp), %ecx
	addl	$1, %ecx
	movl	%ecx, -28(%rbp)
	.loc	3 59 24                 # print_ast.c:59:24
	movq	-24(%rbp), %rdi
	movq	%rdi, %rdx
	addq	$8, %rdx
	movq	%rdx, -24(%rbp)
	.loc	3 59 27 is_stmt 0       # print_ast.c:59:27
	movq	$0, (%rdi)
	.loc	3 60 29 is_stmt 1       # print_ast.c:60:29
	movq	-8(%rbp), %rdx
	.loc	3 60 35 is_stmt 0       # print_ast.c:60:35
	movq	8(%rdx), %rdx
	.loc	3 60 24                 # print_ast.c:60:24
	movq	-24(%rbp), %rdi
	movq	%rdi, %rsi
	addq	$8, %rsi
	movq	%rsi, -24(%rbp)
	.loc	3 60 27                 # print_ast.c:60:27
	movq	%rdx, (%rdi)
	movl	%eax, -72(%rbp)         # 4-byte Spill
	.loc	3 61 21 is_stmt 1       # print_ast.c:61:21
	jmp	.LBB0_18
.LBB0_14:                               #   in Loop: Header=BB0_4 Depth=1
	.loc	3 63 28                 # print_ast.c:63:28
	movl	-28(%rbp), %edi
	.loc	3 63 21 is_stmt 0       # print_ast.c:63:21
	callq	indent
	.loc	3 64 21 is_stmt 1       # print_ast.c:64:21
	movabsq	$.L.str.6, %rdi
	movb	$0, %al
	callq	printf
	.loc	3 65 33                 # print_ast.c:65:33
	movl	-28(%rbp), %ecx
	addl	$1, %ecx
	movl	%ecx, -28(%rbp)
	.loc	3 66 24                 # print_ast.c:66:24
	movq	-24(%rbp), %rdi
	movq	%rdi, %rdx
	addq	$8, %rdx
	movq	%rdx, -24(%rbp)
	.loc	3 66 27 is_stmt 0       # print_ast.c:66:27
	movq	$0, (%rdi)
	.loc	3 67 29 is_stmt 1       # print_ast.c:67:29
	movq	-8(%rbp), %rdx
	.loc	3 67 35 is_stmt 0       # print_ast.c:67:35
	movq	8(%rdx), %rdx
	.loc	3 67 24                 # print_ast.c:67:24
	movq	-24(%rbp), %rdi
	movq	%rdi, %rsi
	addq	$8, %rsi
	movq	%rsi, -24(%rbp)
	.loc	3 67 27                 # print_ast.c:67:27
	movq	%rdx, (%rdi)
	movl	%eax, -76(%rbp)         # 4-byte Spill
	.loc	3 68 21 is_stmt 1       # print_ast.c:68:21
	jmp	.LBB0_18
.LBB0_15:                               #   in Loop: Header=BB0_4 Depth=1
	.loc	3 70 28                 # print_ast.c:70:28
	movl	-28(%rbp), %edi
	.loc	3 70 21 is_stmt 0       # print_ast.c:70:21
	callq	indent
	.loc	3 71 21 is_stmt 1       # print_ast.c:71:21
	movabsq	$.L.str.8, %rdi
	movb	$0, %al
	callq	printf
	.loc	3 72 33                 # print_ast.c:72:33
	movl	-28(%rbp), %ecx
	addl	$1, %ecx
	movl	%ecx, -28(%rbp)
	.loc	3 73 24                 # print_ast.c:73:24
	movq	-24(%rbp), %rdi
	movq	%rdi, %rdx
	addq	$8, %rdx
	movq	%rdx, -24(%rbp)
	.loc	3 73 27 is_stmt 0       # print_ast.c:73:27
	movq	$0, (%rdi)
	.loc	3 74 29 is_stmt 1       # print_ast.c:74:29
	movq	-8(%rbp), %rdx
	.loc	3 74 35 is_stmt 0       # print_ast.c:74:35
	movq	8(%rdx), %rdx
	.loc	3 74 24                 # print_ast.c:74:24
	movq	-24(%rbp), %rdi
	movq	%rdi, %rsi
	addq	$8, %rsi
	movq	%rsi, -24(%rbp)
	.loc	3 74 27                 # print_ast.c:74:27
	movq	%rdx, (%rdi)
	movl	%eax, -80(%rbp)         # 4-byte Spill
	.loc	3 75 21 is_stmt 1       # print_ast.c:75:21
	jmp	.LBB0_18
.LBB0_16:                               #   in Loop: Header=BB0_4 Depth=1
	.loc	3 77 28                 # print_ast.c:77:28
	movl	-28(%rbp), %edi
	.loc	3 77 21 is_stmt 0       # print_ast.c:77:21
	callq	indent
	.loc	3 78 21 is_stmt 1       # print_ast.c:78:21
	movabsq	$.L.str.9, %rdi
	movb	$0, %al
	callq	printf
	.loc	3 79 33                 # print_ast.c:79:33
	movl	-28(%rbp), %ecx
	addl	$1, %ecx
	movl	%ecx, -28(%rbp)
	.loc	3 80 24                 # print_ast.c:80:24
	movq	-24(%rbp), %rdi
	movq	%rdi, %rdx
	addq	$8, %rdx
	movq	%rdx, -24(%rbp)
	.loc	3 80 27 is_stmt 0       # print_ast.c:80:27
	movq	$0, (%rdi)
	.loc	3 81 29 is_stmt 1       # print_ast.c:81:29
	movq	-8(%rbp), %rdx
	.loc	3 81 35 is_stmt 0       # print_ast.c:81:35
	movq	8(%rdx), %rdx
	.loc	3 81 24                 # print_ast.c:81:24
	movq	-24(%rbp), %rdi
	movq	%rdi, %rsi
	addq	$8, %rsi
	movq	%rsi, -24(%rbp)
	.loc	3 81 27                 # print_ast.c:81:27
	movq	%rdx, (%rdi)
	movl	%eax, -84(%rbp)         # 4-byte Spill
	.loc	3 82 21 is_stmt 1       # print_ast.c:82:21
	jmp	.LBB0_18
.LBB0_17:                               #   in Loop: Header=BB0_4 Depth=1
	.loc	3 84 28                 # print_ast.c:84:28
	movl	-28(%rbp), %edi
	.loc	3 84 21 is_stmt 0       # print_ast.c:84:21
	callq	indent
	.loc	3 85 34 is_stmt 1       # print_ast.c:85:34
	movq	-8(%rbp), %rax
	movsbl	8(%rax), %esi
	.loc	3 85 21 is_stmt 0       # print_ast.c:85:21
	movabsq	$.L.str.10, %rdi
	movb	$0, %al
	callq	printf
	movl	%eax, -88(%rbp)         # 4-byte Spill
.Ltmp11:
.LBB0_18:                               #   in Loop: Header=BB0_4 Depth=1
	.loc	3 89 13 is_stmt 1       # print_ast.c:89:13
	movabsq	$.L.str.11, %rdi
	movb	$0, %al
	callq	printf
	movl	%eax, -92(%rbp)         # 4-byte Spill
.Ltmp12:
.LBB0_19:                               #   in Loop: Header=BB0_4 Depth=1
	.loc	3 21 5                  # print_ast.c:21:5
	jmp	.LBB0_4
.LBB0_20:
	.loc	3 93 10                 # print_ast.c:93:10
	movq	-16(%rbp), %rax
	.loc	3 93 5 is_stmt 0        # print_ast.c:93:5
	movq	%rax, %rdi
	callq	free
	.loc	3 94 16 is_stmt 1       # print_ast.c:94:16
	movq	$0, -24(%rbp)
	.loc	3 94 11 is_stmt 0       # print_ast.c:94:11
	movq	$0, -16(%rbp)
	.loc	3 95 1 is_stmt 1        # print_ast.c:95:1
	addq	$96, %rsp
	popq	%rbp
	.cfi_def_cfa %rsp, 8
	retq
.Ltmp13:
.Lfunc_end0:
	.size	print_expr, .Lfunc_end0-print_expr
	.cfi_endproc
	.section	.rodata,"a",@progbits
	.p2align	3
.LJTI0_0:
	.quad	.LBB0_8
	.quad	.LBB0_9
	.quad	.LBB0_10
	.quad	.LBB0_11
	.quad	.LBB0_12
	.quad	.LBB0_13
	.quad	.LBB0_14
	.quad	.LBB0_15
	.quad	.LBB0_16
	.quad	.LBB0_17
                                        # -- End function
	.text
	.p2align	4, 0x90         # -- Begin function indent
	.type	indent,@function
indent:                                 # @indent
.Lfunc_begin1:
	.loc	3 8 0                   # print_ast.c:8:0
	.cfi_startproc
# %bb.0:
	pushq	%rbp
	.cfi_def_cfa_offset 16
	.cfi_offset %rbp, -16
	movq	%rsp, %rbp
	.cfi_def_cfa_register %rbp
	subq	$16, %rsp
	movl	%edi, -4(%rbp)
.LBB1_1:                                # =>This Inner Loop Header: Depth=1
.Ltmp14:
	.loc	3 9 13 prologue_end     # print_ast.c:9:13
	movl	-4(%rbp), %eax
	movl	%eax, %ecx
	addl	$-1, %ecx
	movl	%ecx, -4(%rbp)
	.loc	3 9 16 is_stmt 0        # print_ast.c:9:16
	cmpl	$0, %eax
	.loc	3 9 5                   # print_ast.c:9:5
	jle	.LBB1_3
# %bb.2:                                #   in Loop: Header=BB1_1 Depth=1
	.loc	3 9 21                  # print_ast.c:9:21
	movabsq	$.L.str.20, %rdi
	movb	$0, %al
	callq	printf
	movl	%eax, -8(%rbp)          # 4-byte Spill
	.loc	3 9 5                   # print_ast.c:9:5
	jmp	.LBB1_1
.LBB1_3:
	.loc	3 10 1 is_stmt 1        # print_ast.c:10:1
	addq	$16, %rsp
	popq	%rbp
	.cfi_def_cfa %rsp, 8
	retq
.Ltmp15:
.Lfunc_end1:
	.size	indent, .Lfunc_end1-indent
	.cfi_endproc
                                        # -- End function
	.globl	print_expr_table        # -- Begin function print_expr_table
	.p2align	4, 0x90
	.type	print_expr_table,@function
print_expr_table:                       # @print_expr_table
.Lfunc_begin2:
	.loc	3 97 0                  # print_ast.c:97:0
	.cfi_startproc
# %bb.0:
	pushq	%rbp
	.cfi_def_cfa_offset 16
	.cfi_offset %rbp, -16
	movq	%rsp, %rbp
	.cfi_def_cfa_register %rbp
	subq	$80, %rsp
	movq	%rdi, -8(%rbp)
	movq	%rsi, -16(%rbp)
.LBB2_1:                                # =>This Inner Loop Header: Depth=1
.Ltmp16:
	.loc	3 98 12 prologue_end    # print_ast.c:98:12
	movq	-8(%rbp), %rax
	.loc	3 98 18 is_stmt 0       # print_ast.c:98:18
	cmpq	-16(%rbp), %rax
	.loc	3 98 5                  # print_ast.c:98:5
	je	.LBB2_14
# %bb.2:                                #   in Loop: Header=BB2_1 Depth=1
.Ltmp17:
	.loc	3 99 25 is_stmt 1       # print_ast.c:99:25
	movq	-8(%rbp), %rsi
	.loc	3 99 9 is_stmt 0        # print_ast.c:99:9
	movl	$.L.str.12, %edi
	xorl	%eax, %eax
	movb	%al, %cl
	movb	%cl, %al
	callq	printf
	.loc	3 100 17 is_stmt 1      # print_ast.c:100:17
	movq	-8(%rbp), %rsi
	.loc	3 100 24 is_stmt 0      # print_ast.c:100:24
	movl	(%rsi), %edx
	movl	%edx, %esi
	movq	%rsi, %rdi
	subq	$9, %rdi
	movl	%eax, -20(%rbp)         # 4-byte Spill
	movq	%rsi, -32(%rbp)         # 8-byte Spill
	movq	%rdi, -40(%rbp)         # 8-byte Spill
	.loc	3 100 9                 # print_ast.c:100:9
	ja	.LBB2_13
# %bb.15:                               #   in Loop: Header=BB2_1 Depth=1
	.loc	3 0 9                   # print_ast.c:0:9
	movq	-32(%rbp), %rax         # 8-byte Reload
	movq	.LJTI2_0(,%rax,8), %rcx
	jmpq	*%rcx
.LBB2_3:                                #   in Loop: Header=BB2_1 Depth=1
.Ltmp18:
	.loc	3 102 17 is_stmt 1      # print_ast.c:102:17
	jmp	.LBB2_13
.LBB2_4:                                #   in Loop: Header=BB2_1 Depth=1
	.loc	3 104 17                # print_ast.c:104:17
	movabsq	$.L.str.3, %rdi
	movb	$0, %al
	callq	printf
	movl	%eax, -44(%rbp)         # 4-byte Spill
	.loc	3 105 17                # print_ast.c:105:17
	jmp	.LBB2_13
.LBB2_5:                                #   in Loop: Header=BB2_1 Depth=1
	.loc	3 107 17                # print_ast.c:107:17
	movabsq	$.L.str.4, %rdi
	movb	$0, %al
	callq	printf
	movl	%eax, -48(%rbp)         # 4-byte Spill
	.loc	3 108 17                # print_ast.c:108:17
	jmp	.LBB2_13
.LBB2_6:                                #   in Loop: Header=BB2_1 Depth=1
	.loc	3 110 35                # print_ast.c:110:35
	movq	-8(%rbp), %rax
	.loc	3 110 42 is_stmt 0      # print_ast.c:110:42
	movq	8(%rax), %rsi
	.loc	3 110 49                # print_ast.c:110:49
	movq	-8(%rbp), %rax
	.loc	3 110 56                # print_ast.c:110:56
	movq	16(%rax), %rdx
	.loc	3 110 17                # print_ast.c:110:17
	movabsq	$.L.str.13, %rdi
	movb	$0, %al
	callq	printf
	movl	%eax, -52(%rbp)         # 4-byte Spill
	.loc	3 111 17 is_stmt 1      # print_ast.c:111:17
	jmp	.LBB2_13
.LBB2_7:                                #   in Loop: Header=BB2_1 Depth=1
	.loc	3 113 35                # print_ast.c:113:35
	movq	-8(%rbp), %rax
	.loc	3 113 42 is_stmt 0      # print_ast.c:113:42
	movq	8(%rax), %rsi
	.loc	3 113 49                # print_ast.c:113:49
	movq	-8(%rbp), %rax
	.loc	3 113 56                # print_ast.c:113:56
	movq	16(%rax), %rdx
	.loc	3 113 17                # print_ast.c:113:17
	movabsq	$.L.str.14, %rdi
	movb	$0, %al
	callq	printf
	movl	%eax, -56(%rbp)         # 4-byte Spill
	.loc	3 114 17 is_stmt 1      # print_ast.c:114:17
	jmp	.LBB2_13
.LBB2_8:                                #   in Loop: Header=BB2_1 Depth=1
	.loc	3 116 32                # print_ast.c:116:32
	movq	-8(%rbp), %rax
	.loc	3 116 39 is_stmt 0      # print_ast.c:116:39
	movq	8(%rax), %rsi
	.loc	3 116 17                # print_ast.c:116:17
	movabsq	$.L.str.15, %rdi
	movb	$0, %al
	callq	printf
	movl	%eax, -60(%rbp)         # 4-byte Spill
	.loc	3 117 17 is_stmt 1      # print_ast.c:117:17
	jmp	.LBB2_13
.LBB2_9:                                #   in Loop: Header=BB2_1 Depth=1
	.loc	3 119 32                # print_ast.c:119:32
	movq	-8(%rbp), %rax
	.loc	3 119 39 is_stmt 0      # print_ast.c:119:39
	movq	8(%rax), %rsi
	.loc	3 119 17                # print_ast.c:119:17
	movabsq	$.L.str.16, %rdi
	movb	$0, %al
	callq	printf
	movl	%eax, -64(%rbp)         # 4-byte Spill
	.loc	3 120 17 is_stmt 1      # print_ast.c:120:17
	jmp	.LBB2_13
.LBB2_10:                               #   in Loop: Header=BB2_1 Depth=1
	.loc	3 122 32                # print_ast.c:122:32
	movq	-8(%rbp), %rax
	.loc	3 122 39 is_stmt 0      # print_ast.c:122:39
	movq	8(%rax), %rsi
	.loc	3 122 17                # print_ast.c:122:17
	movabsq	$.L.str.17, %rdi
	movb	$0, %al
	callq	printf
	movl	%eax, -68(%rbp)         # 4-byte Spill
	.loc	3 123 17 is_stmt 1      # print_ast.c:123:17
	jmp	.LBB2_13
.LBB2_11:                               #   in Loop: Header=BB2_1 Depth=1
	.loc	3 125 33                # print_ast.c:125:33
	movq	-8(%rbp), %rax
	.loc	3 125 40 is_stmt 0      # print_ast.c:125:40
	movq	8(%rax), %rsi
	.loc	3 125 17                # print_ast.c:125:17
	movabsq	$.L.str.18, %rdi
	movb	$0, %al
	callq	printf
	movl	%eax, -72(%rbp)         # 4-byte Spill
	.loc	3 126 17 is_stmt 1      # print_ast.c:126:17
	jmp	.LBB2_13
.LBB2_12:                               #   in Loop: Header=BB2_1 Depth=1
	.loc	3 128 30                # print_ast.c:128:30
	movq	-8(%rbp), %rax
	movsbl	8(%rax), %esi
	.loc	3 128 17 is_stmt 0      # print_ast.c:128:17
	movabsq	$.L.str.10, %rdi
	movb	$0, %al
	callq	printf
	movl	%eax, -76(%rbp)         # 4-byte Spill
.Ltmp19:
.LBB2_13:                               #   in Loop: Header=BB2_1 Depth=1
	.loc	3 132 9 is_stmt 1       # print_ast.c:132:9
	movabsq	$.L.str.19, %rdi
	movb	$0, %al
	callq	printf
	.loc	3 133 14                # print_ast.c:133:14
	movq	-8(%rbp), %rdi
	addq	$24, %rdi
	movq	%rdi, -8(%rbp)
	movl	%eax, -80(%rbp)         # 4-byte Spill
.Ltmp20:
	.loc	3 98 5                  # print_ast.c:98:5
	jmp	.LBB2_1
.LBB2_14:
	.loc	3 135 1                 # print_ast.c:135:1
	addq	$80, %rsp
	popq	%rbp
	.cfi_def_cfa %rsp, 8
	retq
.Ltmp21:
.Lfunc_end2:
	.size	print_expr_table, .Lfunc_end2-print_expr_table
	.cfi_endproc
	.section	.rodata,"a",@progbits
	.p2align	3
.LJTI2_0:
	.quad	.LBB2_3
	.quad	.LBB2_4
	.quad	.LBB2_5
	.quad	.LBB2_6
	.quad	.LBB2_7
	.quad	.LBB2_8
	.quad	.LBB2_9
	.quad	.LBB2_10
	.quad	.LBB2_11
	.quad	.LBB2_12
                                        # -- End function
	.type	.L.str,@object          # @.str
	.section	.rodata.str1.1,"aMS",@progbits,1
.L.str:
	.asciz	"exprs != NULL"
	.size	.L.str, 14

	.type	.L.str.1,@object        # @.str.1
.L.str.1:
	.asciz	"print_ast.c"
	.size	.L.str.1, 12

	.type	.L__PRETTY_FUNCTION__.print_expr,@object # @__PRETTY_FUNCTION__.print_expr
.L__PRETTY_FUNCTION__.print_expr:
	.asciz	"void print_expr(struct expr *)"
	.size	.L__PRETTY_FUNCTION__.print_expr, 31

	.type	.L.str.2,@object        # @.str.2
.L.str.2:
	.asciz	"null expression encountered\n"
	.size	.L.str.2, 29

	.type	.L.str.3,@object        # @.str.3
.L.str.3:
	.asciz	"\316\265"
	.size	.L.str.3, 3

	.type	.L.str.4,@object        # @.str.4
.L.str.4:
	.asciz	"."
	.size	.L.str.4, 2

	.type	.L.str.5,@object        # @.str.5
.L.str.5:
	.asciz	"|"
	.size	.L.str.5, 2

	.type	.L.str.6,@object        # @.str.6
.L.str.6:
	.asciz	"+"
	.size	.L.str.6, 2

	.type	.L.str.7,@object        # @.str.7
.L.str.7:
	.asciz	"*"
	.size	.L.str.7, 2

	.type	.L.str.8,@object        # @.str.8
.L.str.8:
	.asciz	"?"
	.size	.L.str.8, 2

	.type	.L.str.9,@object        # @.str.9
.L.str.9:
	.asciz	"()"
	.size	.L.str.9, 3

	.type	.L.str.10,@object       # @.str.10
.L.str.10:
	.asciz	"%c"
	.size	.L.str.10, 3

	.type	.L.str.11,@object       # @.str.11
.L.str.11:
	.asciz	"\n"
	.size	.L.str.11, 2

	.type	.L.str.12,@object       # @.str.12
.L.str.12:
	.asciz	"%p: ("
	.size	.L.str.12, 6

	.type	.L.str.13,@object       # @.str.13
.L.str.13:
	.asciz	"| %p %p"
	.size	.L.str.13, 8

	.type	.L.str.14,@object       # @.str.14
.L.str.14:
	.asciz	"+ %p %p"
	.size	.L.str.14, 8

	.type	.L.str.15,@object       # @.str.15
.L.str.15:
	.asciz	"* %p"
	.size	.L.str.15, 5

	.type	.L.str.16,@object       # @.str.16
.L.str.16:
	.asciz	"+ %p"
	.size	.L.str.16, 5

	.type	.L.str.17,@object       # @.str.17
.L.str.17:
	.asciz	"? %p"
	.size	.L.str.17, 5

	.type	.L.str.18,@object       # @.str.18
.L.str.18:
	.asciz	"() %p"
	.size	.L.str.18, 6

	.type	.L.str.19,@object       # @.str.19
.L.str.19:
	.asciz	")\n"
	.size	.L.str.19, 3

	.type	expr_actions,@object    # @expr_actions
	.comm	expr_actions,80,16
	.type	.L.str.20,@object       # @.str.20
.L.str.20:
	.asciz	"    "
	.size	.L.str.20, 5

	.section	".note.GNU-stack","",@progbits
	.addrsig
	.addrsig_sym calloc
	.addrsig_sym __assert_fail
	.addrsig_sym fprintf
	.addrsig_sym indent
	.addrsig_sym printf
	.addrsig_sym free
	.addrsig_sym stderr